(dp0
S'METTS MARK'
p1
(dp2
S'to_messages'
p3
F0.04969520275642724
sS'deferral_payments'
p4
F0.0
sS'compound_key_financial_data'
p5
F0.014510845212233687
sS'expenses'
p6
F0.41221263928170204
sS'poi'
p7
I00
sS'deferred_income'
p8
F1.0
sS'long_term_incentive'
p9
F0.0
sS'restricted_stock_deferred'
p10
F0.9999999999999999
sS'shared_receipt_with_poi'
p11
F0.12683457148034064
sS'loan_advances'
p12
F0.0
sS'from_messages'
p13
F0.0011841738645862357
sS'bonus_to_salary'
p14
F1.6402943781644013
sS'bonus_to_total_payments_ratio'
p15
F0.5650638004119315
sS'director_fees'
p16
F0.0
sS'exercised_stock_to_total_stock'
p17
F0.0
sS'bonus'
p18
F0.0857142857142857
sS'total_stock_value'
p19
F0.011913277759404088
sS'from_poi_to_this_person'
p20
F0.12459016393442623
sS'from_this_person_to_poi'
p21
F0.0016420361247947454
sS'restricted_stock'
p22
F0.03963379812642099
sS'salary'
p23
F0.329165684296536
sS'aggregate_communications_with_poi'
p24
F0.4635533489459735
sS'total_payments'
p25
F0.010253274646850635
sS'exercised_stock_options'
p26
F0.0
sS'other'
p27
F0.00016795806145122134
ssS'ELLIOTT STEVEN'
p28
(dp29
g3
F0.12921488941897102
sg4
F0.0
sg5
F0.12673636773809588
sg6
F0.34337720697840124
sg7
I00
sg8
F0.8856492977657142
sg9
F0.0
sg10
F0.9999999999999999
sg11
F0.1914346399307443
sg12
F0.0
sg13
F0.045748390142720044
sg14
F2.047490069673162
sg15
F1.6530877317274766
sg16
F0.0
sg17
F0.7322260877246963
sg18
F0.049999999999999996
sg19
F0.13599520245111402
sg20
F0.1918032786885246
sg21
F0.05956942163838715
sg22
F0.12115079746267603
sg23
F0.15382656412822224
sg24
F0.29469724683506493
sg25
F0.002044471062239377
sg26
F0.14237479119832827
sg27
F0.0012510945025685518
ssS'CORDES WILLIAM R'
p30
(dp31
g3
F0.046846011131725415
sg4
F0.0
sg5
F0.01576482408599088
sg6
F0.0
sg7
I00
sg8
F1.0
sg9
F0.0
sg10
F0.9999999999999999
sg11
F0.01014676571842725
sg12
F0.0
sg13
F0.0
sg14
F0.0
sg15
F0.0
sg16
F0.0
sg17
F0.6278746080900803
sg18
F0.0
sg19
F0.021139958279031854
sg20
F0.03278688524590164
sg21
F0.0
sg22
F0.02617145430598954
sg23
F0.0
sg24
F0.030104736621407027
sg25
F0.0
sg26
F0.018977603138476615
sg27
F0.0
ssS'HANNON KEVIN P'
p32
(dp33
g3
F0.06546514709780014
sg4
F0.0
sg5
F0.17021223852424316
sg6
F0.1487959154233858
sg7
I01
sg8
F0.11054004895579417
sg9
F0.31426134316366705
sg10
F0.9999999999999999
sg11
F0.1871715890559884
sg12
F0.0
sg13
F0.0013931457230426303
sg14
F6.165405498719651
sg15
F5.196028848352166
sg16
F0.0
sg17
F0.8665224027607292
sg18
F0.21428571428571427
sg19
F0.1301375452916202
sg20
F0.10491803278688525
sg21
F0.034482758620689655
sg22
F0.05778903152985016
sg23
F0.2189347568251477
sg24
F0.8519304754783753
sg25
F0.002787587649967589
sg26
F0.1612303216360921
sg27
F0.0010955885042938864
ssS'MORDAUNT KRISTINA M'
p34
(dp35
g3
F0.12921488941897102
sg4
F0.0
sg5
F0.00786004115662658
sg6
F0.15307545363542183
sg7
I00
sg8
F1.0
sg9
F0.0
sg10
F0.9999999999999999
sg11
F0.1914346399307443
sg12
F0.0
sg13
F0.045748390142720044
sg14
F1.2168046335920448
sg15
F0.5170861163173286
sg16
F0.0
sg17
F0.0
sg18
F0.04642857142857142
sg19
F0.00424576804785364
sg20
F0.1918032786885246
sg21
F0.05956942163838715
sg22
F0.014125072637327395
sg23
F0.24035192547545214
sg24
F0.29469724683506493
sg25
F0.006069170107360102
sg26
F0.0
sg27
F0.0001362004739699272
ssS'MEYER ROCKFORD G'
p36
(dp37
g3
F0.011595547309833023
sg4
F0.5901371708824787
sg5
F0.011934904154899983
sg6
F0.0
sg7
I00
sg8
F1.0
sg9
F0.0
sg10
F0.9999999999999999
sg11
F0.0036238448994383035
sg12
F0.0
sg13
F0.0011145165784341043
sg14
F0.0
sg15
F0.0
sg16
F0.0
sg17
F0.5162704668925684
sg18
F0.0
sg19
F0.019463886821763955
sg20
F0.0
sg21
F0.0
sg22
F0.03132323431172601
sg23
F0.0
sg24
F0.03999917977851862
sg25
F0.017846955333330958
sg26
F0.014367167899369006
sg27
F0.0
ssS'MCMAHON JEFFREY'
p38
(dp39
g3
F0.15226610124569306
sg4
F0.0
sg5
F0.08958159041959173
sg6
F0.599345173826187
sg7
I00
sg8
F1.0
sg9
F0.13504439081329195
sg10
F0.9999999999999999
sg11
F0.4033339373074832
sg12
F0.0
sg13
F0.0025076623014767345
sg14
F7.018528916339135
sg15
F0.6341817628350461
sg16
F0.0
sg17
F0.6639508556067727
sg18
F0.3714285714285714
sg19
F0.03385975074199638
sg20
F0.1901639344262295
sg21
F0.04269293924466338
sg22
F0.03785480175920189
sg23
F0.3333591299230242
sg24
F0.7687719591324854
sg25
F0.03958844336430838
sg26
F0.03214282220671575
sg27
F0.028702777842933923
ssS'HORTON STANLEY C'
p40
(dp41
g3
F0.15193479989398356
sg4
F1.0
sg5
F0.12601626704443877
sg6
F0.0
sg7
I00
sg8
F1.0
sg9
F0.0
sg10
F0.9999999999999999
sg11
F0.19423808660989308
sg12
F0.0
sg13
F0.07390638060741155
sg14
F0.0
sg15
F0.0
sg16
F0.0
sg17
F0.7180407538025821
sg18
F0.0
sg19
F0.14776290927495575
sg20
F0.14426229508196722
sg21
F0.02463054187192118
sg22
F0.13860733056788738
sg23
F0.0
sg24
F0.2368134245459456
sg25
F0.030242045771566962
sg26
F0.15169764609595607
sg27
F0.0
ssS'PIPER GREGORY F'
p42
(dp43
g3
F0.07825337927378742
sg4
F0.36081944914523634
sg5
F0.030963483361284443
sg6
F0.18821662594038374
sg7
I00
sg8
F0.9904882053518077
sg9
F0.0
sg10
F0.8427507880621541
sg11
F0.13408226127921724
sg12
F0.0
sg13
F0.014628030091947618
sg14
F2.0295193590777862
sg15
F0.23019873632403695
sg16
F0.0
sg17
F1.0
sg18
F0.05714285714285714
sg19
F0.017924834083953196
sg20
F0.2
sg21
F0.07881773399014778
sg22
F0.027744376763263075
sg23
F0.1773584532124853
sg24
F0.4170924474247986
sg25
F0.016778992596093736
sg26
F0.025628279921407655
sg27
F7.509848954543116e-05
ssS'HUMPHREY GENE E'
p44
(dp45
g3
F0.004704479194275113
sg4
F0.9465640226574623
sg5
F0.05520815517240045
sg6
F0.021830453351284956
sg7
I00
sg8
F1.0
sg9
F0.0
sg10
F0.9999999999999999
sg11
F0.02119949266171408
sg12
F0.0
sg13
F0.00034828643076065767
sg14
F0.0
sg15
F0.0
sg16
F0.0
sg17
F1.0
sg18
F0.0
sg19
F0.04648267917635969
sg20
F0.03278688524590164
sg21
F0.027914614121510674
sg22
F0.0
sg23
F0.1176360485143864
sg24
F1.0
sg25
F0.029936560417806166
sg26
F0.0664592546770177
sg27
F0.0
ssS'UMANOFF ADAM S'
p46
(dp47
g3
F0.0035780545984627613
sg4
F0.0
sg5
F0.0190757152685822
sg6
F0.23221412553603513
sg7
I00
sg8
F1.0
sg9
F0.0
sg10
F0.9999999999999999
sg11
F0.007066497553904693
sg12
F0.0
sg13
F0.00041794371691278906
sg14
F2.7331256562100426
sg15
F0.6977242027809893
sg16
F0.0
sg17
F0.0
sg18
F0.11267857142857142
sg19
F0.0
sg20
F0.039344262295081964
sg21
F0.0
sg22
F0.0
sg23
F0.2596957682194414
sg24
F0.1836397569363674
sg25
F0.010916022205645004
sg26
F0.0
sg27
F0.0
ssS'BLACHMAN JEREMY M'
p48
(dp49
g3
F0.16021733368672142
sg4
F0.0
sg5
F0.03906592818718139
sg6
F0.3681014849429322
sg7
I00
sg8
F1.0
sg9
F0.16165963842894499
sg10
F0.9999999999999999
sg11
F0.4210907773147309
sg12
F0.0
sg13
F0.0001393145723042631
sg14
F3.419890080709406
sg15
F0.4218707735372872
sg16
F0.0
sg17
F0.8019173178925221
sg18
F0.12142857142857141
sg19
F0.01943295630685009
sg20
F0.08196721311475409
sg21
F0.003284072249589491
sg22
F0.012806186065095239
sg23
F0.22366183190582203
sg24
F0.5568316845920677
sg25
F0.01945576503807805
sg26
F0.022280902647414214
sg27
F2.6255513054443797e-05
ssS'SUNDE MARTIN'
p50
(dp51
g3
F0.17161410018552875
sg4
F0.0
sg5
F0.016929319414272635
sg6
F0.0
sg7
I00
sg8
F1.0
sg9
F0.09259685383196053
sg10
F0.9999999999999999
sg11
F0.46439572386301864
sg12
F0.0
sg13
F0.0018110894399554194
sg14
F2.7185944090164127
sg15
F0.4530571324460749
sg16
F0.0
sg17
F0.0
sg18
F0.09999999999999999
sg19
F0.014231702095850876
sg20
F0.12131147540983607
sg21
F0.02134646962233169
sg22
F0.04734686953949865
sg23
F0.2317067683652221
sg24
F0.6763683277388514
sg25
F0.014919487141114698
sg26
F0.0
sg27
F0.010726342358955528
ssS'GIBBS DANA R'
p52
(dp53
g3
F0.007421150278293135
sg4
F0.1611215060698754
sg5
F0.05364840860527947
sg6
F0.0
sg7
I00
sg8
F1.0
sg9
F0.08977124184276779
sg10
F0.9999999999999999
sg11
F0.003805037144410219
sg12
F0.0
sg13
F0.0
sg14
F0.0
sg15
F0.0
sg16
F0.0
sg17
F1.0
sg18
F0.0
sg19
F0.04516944566856522
sg20
F0.0
sg21
F0.0
sg22
F0.0
sg23
F0.0
sg24
F0.061590167932812814
sg25
F0.009332985051447524
sg26
F0.06458164087137258
sg27
F0.0
ssS'LOWRY CHARLES P'
p54
(dp55
g3
F0.12921488941897102
sg4
F0.0
sg5
F0.009001681903699066
sg6
F0.0
sg7
I00
sg8
F1.0
sg9
F0.0
sg10
F0.9409919024453923
sg11
F0.1914346399307443
sg12
F0.0
sg13
F0.045748390142720044
sg14
F0.0
sg15
F0.0
sg16
F0.0
sg17
F1.0
sg18
F0.0
sg19
F0.0075789942748614655
sg20
F0.1918032786885246
sg21
F0.05956942163838715
sg22
F0.010411135740925125
sg23
F0.0
sg24
F0.29469724683506493
sg25
F0.0
sg26
F0.010836172088911081
sg27
F0.0
ssS'COLWELL WESLEY'
p56
(dp57
g3
F0.11270871985157697
sg4
F0.008815847451674085
sg5
F0.029021690424467374
sg6
F0.07218824722529431
sg7
I01
sg8
F0.9588909440912046
sg9
F0.0
sg10
F0.9999999999999999
sg11
F0.20474723681826418
sg12
F0.0
sg13
F0.0019504040122596822
sg14
F4.158839960906905
sg15
F0.8051832328643588
sg16
F0.0
sg17
F0.0
sg18
F0.1714285714285714
sg19
F0.014217896375566742
sg20
F0.7868852459016393
sg21
F0.0180623973727422
sg22
F0.04730093985148317
sg23
F0.2596534738107622
sg24
F0.4711618989672362
sg25
F0.014391145026719008
sg26
F0.0
sg27
F0.009820720213820265
ssS'MULLER MARK S'
p58
(dp59
g3
F0.005234561357010337
sg4
F0.26914485321821535
sg5
F0.05215004291340624
sg6
F0.0
sg7
I00
sg8
F0.7948285377238694
sg9
F0.33535460759966995
sg10
F0.9999999999999999
sg11
F0.020293531436854504
sg12
F0.0
sg13
F0.00027862914460852607
sg14
F4.3710809285765375
sg15
F0.3435277804670104
sg16
F0.0
sg17
F0.7455422176549636
sg18
F0.15714285714285714
sg19
F0.02885045305772066
sg20
F0.039344262295081964
sg21
F0.0
sg22
F0.024423213216586116
sg23
F0.2264586621648618
sg24
F0.4289509487873896
sg25
F0.03092001159175743
sg26
F0.030753120729056713
sg27
F9.141165758293484e-05
ssS'JACKSON CHARLENE R'
p60
(dp61
g3
F0.013318314338722503
sg4
F0.0
sg5
F0.010521886417616708
sg6
F0.04450457460341052
sg7
I00
sg8
F1.0
sg9
F0.0
sg10
F0.9999999999999999
sg11
F0.02083710817177025
sg12
F0.0
sg13
F0.003064920590693787
sg14
F0.8663769502145149
sg15
F0.453577273238578
sg16
F0.0
sg17
F0.25500079230021977
sg18
F0.03571428571428571
sg19
F0.014777720369330304
sg20
F0.08196721311475409
sg21
F0.031198686371100164
sg22
F0.03662669067655785
sg23
F0.25966787190733387
sg24
F0.40516559253782614
sg25
F0.005322277923054558
sg26
F0.005387822611974991
sg27
F0.0002350447584101862
ssS'WESTFAHL RICHARD K'
p62
(dp63
g3
F0.12921488941897102
sg4
F0.0
sg5
F0.0
sg6
F0.22674121252125565
sg7
I00
sg8
F0.9969181477154628
sg9
F0.04978996912602514
sg10
F0.9999999999999999
sg11
F0.1914346399307443
sg12
F0.0
sg13
F0.045748390142720044
sg14
F0.0
sg15
F0.0
sg16
F0.0
sg17
F0.0
sg18
F0.0
sg19
F0.007838106060430203
sg20
F0.1918032786885246
sg21
F0.05956942163838715
sg22
F0.02607627552772737
sg23
F0.05736201674138679
sg24
F0.29469724683506493
sg25
F0.00735937160476943
sg26
F0.0
sg27
F0.038720124821797944
ssS'WALTERS GARETH W'
p64
(dp65
g3
F0.12921488941897102
sg4
F0.017122412879247473
sg5
F0.02491824106112587
sg6
F0.14768559600984427
sg7
I00
sg8
F1.0
sg9
F0.0
sg10
F0.9999999999999999
sg11
F0.1914346399307443
sg12
F0.0
sg13
F0.045748390142720044
sg14
F0.0
sg15
F0.0
sg16
F0.0
sg17
F1.0
sg18
F0.0
sg19
F0.02097999111302572
sg20
F0.1918032786885246
sg21
F0.05956942163838715
sg22
F0.0
sg23
F0.0
sg24
F0.29469724683506493
sg25
F0.0008440534445641466
sg26
F0.02999643301996391
sg27
F0.0
ssS'WALLS JR ROBERT H'
p66
(dp67
g3
F0.040683805989928434
sg4
F0.0
sg5
F0.1256770760376028
sg6
F0.22265838444153996
sg7
I00
sg8
F1.0
sg9
F0.10509337016080665
sg10
F0.9999999999999999
sg11
F0.03859394817901794
sg12
F0.0
sg13
F0.009334076344385623
sg14
F2.380345626184922
sg15
F0.47254250102847484
sg16
F0.0
sg17
F0.7368276335790643
sg18
F0.12142857142857141
sg19
F0.12011785035242664
sg20
F0.05573770491803279
sg21
F0.0
sg22
F0.10516767249070465
sg23
F0.3213394189288176
sg24
F0.15802797138931213
sg25
F0.01736948238202832
sg26
F0.1265428964576616
sg27
F1.9305524304738086e-07
ssS'KITCHEN LOUISE'
p68
(dp69
g3
F0.5465147097800158
sg4
F0.0
sg5
F0.07693268012602378
sg6
F0.025240095644837673
sg7
I00
sg8
F1.0
sg9
F0.0
sg10
F0.9999999999999999
sg11
F0.664431962312013
sg12
F0.0
sg13
F0.11953190303705769
sg14
F11.420487617981005
sg15
F0.8930780973748977
sg16
F0.0
sg17
F0.14811849918577044
sg18
F0.44285714285714284
sg19
F0.011141155182038197
sg20
F0.8229508196721311
sg21
F0.3185550082101806
sg22
F0.031575034680979025
sg23
F0.2442655080998292
sg24
F0.2802651777494174
sg25
F0.03351823038116733
sg26
F0.002359412308887661
sg27
F0.009066356851612624
ssS'CHAN RONNIE'
p70
(dp71
g3
F0.12921488941897102
sg4
F0.0
sg5
F0.0
sg6
F0.0
sg7
I00
sg8
F0.9718113244374336
sg9
F0.0
sg10
F0.9875369074175749
sg11
F0.1914346399307443
sg12
F0.0
sg13
F0.045748390142720044
sg14
F0.0
sg15
F0.0
sg16
F0.7900571044675848
sg17
F0.0
sg18
F0.0
sg19
F0.0
sg20
F0.1918032786885246
sg21
F0.05956942163838715
sg22
F0.002198934620918168
sg23
F0.0
sg24
F0.29469724683506493
sg25
F0.0
sg26
F0.0
sg27
F0.0
ssS'BELFER ROBERT'
p72
(dp73
g3
F0.12921488941897102
sg4
F0.0
sg5
F0.0
sg6
F0.01435983965938548
sg7
I00
sg8
F0.9707509389661984
sg9
F0.0
sg10
F0.9830703899803799
sg11
F0.1914346399307443
sg12
F0.0
sg13
F0.045748390142720044
sg14
F0.0
sg15
F0.0
sg16
F0.819777020650383
sg17
F0.0
sg18
F0.0
sg19
F0.0
sg20
F0.1918032786885246
sg21
F0.05956942163838715
sg22
F0.0029869878077678617
sg23
F0.0
sg24
F0.29469724683506493
sg25
F3.172080500392657e-05
sg26
F0.0
sg27
F0.0
ssS'SHANKMAN JEFFREY A'
p74
(dp75
g3
F0.20964749536178107
sg4
F0.0
sg5
F0.08324141519049451
sg6
F0.7823773949458611
sg7
I00
sg8
F1.0
sg9
F0.10775028889691327
sg10
F0.9999999999999999
sg11
F0.31310019931146943
sg12
F0.0
sg13
F0.18591529674003904
sg14
F6.576567689322943
sg15
F0.6581757605714545
sg16
F0.0
sg17
F0.6958849633331483
sg18
F0.2857142857142857
sg19
F0.0421916454704063
sg20
F0.3081967213114754
sg21
F0.13628899835796388
sg22
F0.04268730946461835
sg23
F0.2736628217749613
sg24
F0.2875943361482905
sg25
F0.029342488160438867
sg26
F0.041978627000327
sg27
F0.0001149643972347153
ssS'WODRASKA JOHN'
p76
(dp77
g3
F0.12921488941897102
sg4
F0.0
sg5
F0.0
sg6
F0.0
sg7
I00
sg8
F1.0
sg9
F0.0
sg10
F0.9999999999999999
sg11
F0.1914346399307443
sg12
F0.0
sg13
F0.045748390142720044
sg14
F0.0
sg15
F0.0
sg16
F0.0
sg17
F0.0
sg18
F0.0
sg19
F0.0
sg20
F0.1918032786885246
sg21
F0.05956942163838715
sg22
F0.0
sg23
F0.0
sg24
F0.29469724683506493
sg25
F0.0018306622146299577
sg26
F0.0
sg27
F0.018299996071325802
ssS'BERGSIEKER RICHARD P'
p78
(dp79
g3
F0.021600848131460376
sg4
F0.0
sg5
F0.006046185505097369
sg6
F0.258673824001259
sg7
I00
sg8
F0.8613700088974217
sg9
F0.0350310586045803
sg10
F0.9999999999999999
sg11
F0.04185540858851241
sg12
F0.0
sg13
F0.003273892449150181
sg14
F1.3303391832781686
sg15
F0.4039751151329078
sg16
F0.0
sg17
F0.0
sg18
F0.03571428571428571
sg19
F0.013423904559874656
sg20
F0.013114754098360656
sg21
F0.0
sg22
F0.04465944084737158
sg23
F0.16910744399590374
sg24
F0.30867736194938844
sg25
F0.005975774787421601
sg26
F0.0
sg27
F0.0412477971190173
ssS'URQUHART JOHN A'
p80
(dp81
g3
F0.12921488941897102
sg4
F0.0
sg5
F0.0
sg6
F0.999532267018705
sg7
I00
sg8
F0.9895371114939964
sg9
F0.0
sg10
F0.9999999999999999
sg11
F0.1914346399307443
sg12
F0.0
sg13
F0.045748390142720044
sg14
F0.0
sg15
F0.0
sg16
F0.2932482364796775
sg17
F0.0
sg18
F0.0
sg19
F0.0
sg20
F0.1918032786885246
sg21
F0.05956942163838715
sg22
F0.0
sg23
F0.0
sg24
F0.29469724683506493
sg25
F0.00220796115341791
sg26
F0.0
sg27
F0.0
ssS'BIBI PHILIPPE A'
p82
(dp83
g3
F0.10270341902994963
sg4
F0.0
sg5
F0.05963314068090303
sg6
F0.1685543553808964
sg7
I00
sg8
F1.0
sg9
F0.07185419150260212
sg10
F0.9999999999999999
sg11
F0.2417104547925349
sg12
F0.0
sg13
F0.0019504040122596822
sg14
F4.681100058513751
sg15
F0.4883783056496091
sg16
F0.0
sg17
F0.7949459165122768
sg18
F0.14285714285714285
sg19
F0.03754455450060576
sg20
F0.07540983606557378
sg21
F0.013136288998357963
sg22
F0.025612372130190478
sg23
F0.1922370862571968
sg24
F0.5299954759209794
sg25
F0.01977208471245206
sg26
F0.04267257522217057
sg27
F0.04109065015117673
ssS'PIRO JIM'
p84
(dp85
g3
F6.626027034190279e-05
sg4
F0.0
sg5
F0.0
sg6
F0.0
sg7
I00
sg8
F1.0
sg9
F0.0
sg10
F0.9999999999999999
sg11
F0.0001811922449719152
sg12
F0.0
sg13
F0.00027862914460852607
sg14
F0.0
sg15
F0.0
sg16
F0.0
sg17
F0.0
sg18
F0.0
sg19
F0.0009632238824788671
sg20
F0.0
sg21
F0.0016420361247947454
sg22
F0.0032045102682659588
sg23
F0.0
sg24
F0.050147477980830565
sg25
F0.0
sg26
F0.0
sg27
F0.0
ssS'RIEKER PAULA H'
p86
(dp87
g3
F0.08421680360455869
sg4
F0.0685464867522814
sg5
F0.05647712858621028
sg6
F0.1454387291651185
sg7
I01
sg8
F0.9714643306987301
sg9
F0.0
sg10
F0.9999999999999999
sg11
F0.22757745968472548
sg12
F0.0
sg13
F0.004876010030649206
sg14
F2.8089774920646384
sg15
F0.6368847238649804
sg16
F0.0
sg17
F0.8521804566918219
sg18
F0.09999999999999999
sg19
F0.03907318167973588
sg20
F0.11475409836065574
sg21
F0.07881773399014778
sg22
F0.019215206601627156
sg23
F0.22425125398422327
sg24
F0.7922721440935496
sg25
F0.010613192322622738
sg26
F0.04760742164755116
sg27
F0.00018822886197119635
ssS'WHALEY DAVID A'
p88
(dp89
g3
F0.12921488941897102
sg4
F0.0
sg5
F0.0023874693627688086
sg6
F0.0
sg7
I00
sg8
F1.0
sg9
F0.0
sg10
F0.9999999999999999
sg11
F0.1914346399307443
sg12
F0.0
sg13
F0.045748390142720044
sg14
F0.0
sg15
F0.0
sg16
F0.0
sg17
F1.0
sg18
F0.0
sg19
F0.00201013730827306
sg20
F0.1918032786885246
sg21
F0.05956942163838715
sg22
F0.0
sg23
F0.0
sg24
F0.29469724683506493
sg25
F0.0
sg26
F0.002874021671587228
sg27
F0.0
ssS'BECK SALLY W'
p90
(dp91
g3
F0.4809170421415319
sg4
F0.0
sg5
F0.016929319414272635
sg6
F0.16249131196915587
sg7
I00
sg8
F1.0
sg9
F0.0
sg10
F0.9999999999999999
sg11
F0.47780394999094034
sg12
F0.0
sg13
F0.3016857063248816
sg14
F3.025980201443825
sg15
F0.7223435300721931
sg16
F0.0
sg17
F0.0
sg18
F0.09999999999999999
sg19
F0.0025662146168857645
sg20
F0.4721311475409836
sg21
F0.6338259441707718
sg22
F0.0085374347957626
sg23
F0.2081694799947447
sg24
F0.22563964368194525
sg25
F0.009357569882357721
sg26
F0.0
sg27
F5.463463378240878e-05
ssS'HAUG DAVID L'
p92
(dp93
g3
F0.034190299496421946
sg4
F0.0
sg5
F0.0
sg6
F0.0020763847300481284
sg7
I00
sg8
F1.0
sg9
F0.0
sg10
F0.9999999999999999
sg11
F0.08497916289182823
sg12
F0.0
sg13
F0.00048760100306492065
sg14
F0.0
sg15
F0.0
sg16
F0.0
sg17
F0.0
sg18
F0.0
sg19
F0.04514957194733024
sg20
F0.013114754098360656
sg21
F0.011494252873563218
sg22
F0.15020627036436332
sg23
F0.0
sg24
F0.6132094647305374
sg25
F4.5867221847382405e-06
sg26
F0.0
sg27
F0.0
ssS'ECHOLS JOHN B'
p94
(dp95
g3
F0.12921488941897102
sg4
F0.0
sg5
F0.019382571275336904
sg6
F0.09411486997460254
sg7
I00
sg8
F1.0
sg9
F0.4343217695533555
sg10
F0.9999999999999999
sg11
F0.1914346399307443
sg12
F0.0
sg13
F0.045748390142720044
sg14
F1.0974237976350518
sg15
F0.07428526432925606
sg16
F0.0
sg17
F0.5961081966140735
sg18
F0.02857142857142857
sg19
F0.02054447968907726
sg20
F0.1918032786885246
sg21
F0.05956942163838715
sg22
F0.027605436069871113
sg23
F0.16399881935608113
sg24
F0.29469724683506493
sg25
F0.025997773093269894
sg26
F0.017509935838611795
sg27
F0.005190772847436453
ssS'MENDELSOHN JOHN'
p96
(dp97
g3
F0.12921488941897102
sg4
F0.0
sg5
F0.0
sg6
F0.000646957768520259
sg7
I00
sg8
F0.9703942430999325
sg9
F0.0
sg10
F0.9999999999999999
sg11
F0.1914346399307443
sg12
F0.0
sg13
F0.045748390142720044
sg14
F0.0
sg15
F0.0
sg16
F0.8297743013900218
sg17
F0.0
sg18
F0.0
sg19
F0.0
sg20
F0.1918032786885246
sg21
F0.05956942163838715
sg22
F0.0
sg23
F0.0
sg24
F0.29469724683506493
sg25
F1.4291260701921256e-06
sg26
F0.0
sg27
F0.0
ssS'HICKERSON GARY J'
p98
(dp99
g3
F0.08368672144182347
sg4
F0.0
sg5
F0.04111406143466211
sg6
F0.43210221932742626
sg7
I00
sg8
F1.0
sg9
F0.013453286933619206
sg10
F0.9999999999999999
sg11
F0.16271063598477986
sg12
F0.0
sg13
F0.001044859292281973
sg14
F8.02689481934765
sg15
F0.8166025873812804
sg16
F0.0
sg17
F0.0
sg18
F0.24285714285714283
sg19
F0.008981781702729123
sg20
F0.13114754098360656
sg21
F0.0016420361247947454
sg22
F0.029881123399523115
sg23
F0.19058400479456616
sg24
F0.36649115591245734
sg25
F0.020102357678524908
sg26
F0.0
sg27
F0.00018687747526986468
ssS'CLINE KENNETH W'
p100
(dp101
g3
F0.12921488941897102
sg4
F0.0
sg5
F0.0
sg6
F0.0
sg7
I00
sg8
F1.0
sg9
F0.0
sg10
F0.818556416035385
sg11
F0.1914346399307443
sg12
F0.0
sg13
F0.045748390142720044
sg14
F0.0
sg15
F0.0
sg16
F0.0
sg17
F0.0
sg18
F0.0
sg19
F0.0038590449805435047
sg20
F0.1918032786885246
sg21
F0.05956942163838715
sg22
F0.044851627462268215
sg23
F0.0
sg24
F0.29469724683506493
sg25
F0.0
sg26
F0.0
sg27
F0.0
ssS'LEWIS RICHARD'
p102
(dp103
g3
F0.05930294195600317
sg4
F0.0
sg5
F0.02056856683927478
sg6
F0.0
sg7
I00
sg8
F1.0
sg9
F0.0
sg10
F0.9999999999999999
sg11
F0.1335386845443015
sg12
F0.0
sg13
F0.0009752020061298412
sg14
F0.0
sg15
F0.0
sg16
F0.0
sg17
F1.0
sg18
F0.0
sg19
F0.017317769277417967
sg20
F0.03278688524590164
sg21
F0.0
sg22
F0.0
sg23
F0.0
sg24
F0.39652566732304645
sg25
F0.0
sg26
F0.024760320601982324
sg27
F0.0
ssS'HAYES ROBERT E'
p104
(dp105
g3
F0.02961834084283064
sg4
F0.0025419399334580726
sg5
F0.0
sg6
F0.0
sg7
I00
sg8
F1.0
sg9
F0.0
sg10
F0.9999999999999999
sg11
F0.00869722775865193
sg12
F0.0
sg13
F0.0
sg14
F0.0
sg15
F0.0
sg16
F0.0
sg17
F0.0
sg18
F0.0
sg19
F0.0030832368052846506
sg20
F0.05245901639344262
sg21
F0.0
sg22
F0.010257494837652101
sg23
F0.0
sg24
F0.04229015362313225
sg25
F7.687346381621292e-05
sg26
F0.0
sg27
F0.0
ssS'KOPPER MICHAEL J'
p106
(dp107
g3
F0.15638370375979704
sg4
F0.0
sg5
F0.019347793616311584
sg6
F0.5164034393673802
sg7
I01
sg8
F1.0
sg9
F0.11712734047312628
sg10
F0.9999999999999999
sg11
F0.32270338829498096
sg12
F0.0
sg13
F0.020086176014011067
sg14
F3.5665723011078665
sg15
F0.30158952760524343
sg16
F0.0
sg17
F0.0
sg18
F0.11428571428571428
sg19
F0.020057634606078206
sg20
F0.3206088992974239
sg21
F0.10954726718273515
sg22
F0.06672892691042098
sg23
F0.20184781571876198
sg24
F0.4925350552619833
sg25
F0.025614303806111315
sg26
F0.0
sg27
F0.08759900958799212
ssS'LEFF DANIEL P'
p108
(dp109
g3
F0.18320964749536175
sg4
F0.0
sg5
F0.024184742020389477
sg6
F0.0
sg7
I00
sg8
F1.0
sg9
F0.2696369246986746
sg10
F0.9999999999999999
sg11
F0.4837832940750136
sg12
F0.0
sg13
F0.0035525215937587075
sg14
F3.653021414011529
sg15
F0.3753432514034084
sg16
F0.0
sg17
F0.0
sg18
F0.14285714285714285
sg19
F0.0073412223047171704
sg20
F0.21967213114754097
sg21
F0.022988505747126436
sg22
F0.024423213216586116
sg23
F0.24633883400614437
sg24
F0.6020432268287302
sg25
F0.025726470890106934
sg26
F0.0
sg27
F0.0002975946571575376
ssS'CHRISTODOULOU DIOMEDES'
p110
(dp111
g3
F0.12921488941897102
sg4
F0.0
sg5
F0.12399892097355002
sg6
F0.0
sg7
I00
sg8
F1.0
sg9
F0.0
sg10
F0.9999999999999999
sg11
F0.1914346399307443
sg12
F0.0
sg13
F0.045748390142720044
sg14
F0.0
sg15
F0.0
sg16
F0.0
sg17
F0.8435755201027989
sg18
F0.0
sg19
F0.123760442815831
sg20
F0.1918032786885246
sg21
F0.05956942163838715
sg22
F0.06440520986277048
sg23
F0.0
sg24
F0.29469724683506493
sg25
F0.0
sg26
F0.1492691766809175
sg27
F0.0
ssS'BERBERIAN DAVID'
p112
(dp113
g3
F0.12921488941897102
sg4
F0.0
sg5
F0.03928559819895259
sg6
F0.05198393096785757
sg7
I00
sg8
F1.0
sg9
F0.0
sg10
F0.9999999999999999
sg11
F0.1914346399307443
sg12
F0.0
sg13
F0.045748390142720044
sg14
F0.0
sg15
F0.0
sg16
F0.0
sg17
F0.6514218708895034
sg18
F0.0
sg19
F0.050776054560532365
sg20
F0.1918032786885246
sg21
F0.05956942163838715
sg22
F0.05888348586551109
sg23
F0.19489803447984175
sg24
F0.29469724683506493
sg25
F0.002206203714601863
sg26
F0.04729177361007726
sg27
F0.0
ssS'DETMERING TIMOTHY J'
p114
(dp115
g3
F0.12921488941897102
sg4
F0.2794847151532955
sg5
F0.05932190723584264
sg6
F0.22842417698666306
sg7
I00
sg8
F0.7787797919521422
sg9
F0.08078171831569504
sg10
F0.8790289077708111
sg11
F0.1914346399307443
sg12
F0.0
sg13
F0.045748390142720044
sg14
F2.019002375296912
sg15
F0.3528191913716199
sg16
F0.0
sg17
F1.0
sg18
F0.06071428571428571
sg19
F0.04129223741000778
sg20
F0.1918032786885246
sg21
F0.05956942163838715
sg22
F0.021343620860857837
sg23
F0.18942495802054968
sg24
F0.29469724683506493
sg25
F0.01163176330412325
sg26
F0.05903814863604646
sg27
F0.00010666302178367792
ssS'WAKEHAM JOHN'
p116
(dp117
g3
F0.12921488941897102
sg4
F0.0
sg5
F0.0
sg6
F0.4536266791395462
sg7
I00
sg8
F1.0
sg9
F0.0
sg10
F0.9999999999999999
sg11
F0.1914346399307443
sg12
F0.0
sg13
F0.045748390142720044
sg14
F0.0
sg15
F0.0
sg16
F0.8741462322248348
sg17
F0.0
sg18
F0.0
sg19
F0.0
sg20
F0.1918032786885246
sg21
F0.05956942163838715
sg22
F0.0
sg23
F0.0
sg24
F0.29469724683506493
sg25
F0.0020574683844723405
sg26
F0.0
sg27
F0.0
ssS'POWERS WILLIAM'
p118
(dp119
g3
F0.03949112112377418
sg4
F0.0
sg5
F0.0
sg6
F0.0
sg7
I00
sg8
F0.9950062578722778
sg9
F0.0
sg10
F0.9999999999999999
sg11
F0.001811922449719152
sg12
F0.0
sg13
F0.0009752020061298412
sg14
F0.0
sg15
F0.0
sg16
F0.13996193035494345
sg17
F0.0
sg18
F0.0
sg19
F0.0
sg20
F0.0
sg21
F0.0
sg22
F0.0
sg23
F0.0
sg24
F0.0
sg25
F0.0
sg26
F0.0
sg27
F0.0
ssS'GOLD JOSEPH'
p120
(dp121
g3
F0.12921488941897102
sg4
F0.0
sg5
F0.028695559178322422
sg6
F0.0
sg7
I00
sg8
F1.0
sg9
F0.05923795738124326
sg10
F0.9999999999999999
sg11
F0.1914346399307443
sg12
F0.0
sg13
F0.045748390142720044
sg14
F2.748460861917326
sg15
F0.34932903208377564
sg16
F0.0
sg17
F0.4973900737342627
sg18
F0.10714285714285714
sg19
F0.0178702831626535
sg20
F0.1918032786885246
sg21
F0.05956942163838715
sg22
F0.029881123399523115
sg23
F0.24555953702920474
sg24
F0.29469724683506493
sg25
F0.02073172355607161
sg26
F0.01270845813299397
sg27
F0.07908392198290129
ssS'BANNANTINE JAMES M'
p122
(dp123
g3
F0.033726477604028623
sg4
F0.0
sg5
F0.09785526321899303
sg6
F0.24611060355039935
sg7
I00
sg8
F0.9985435394388632
sg9
F0.0
sg10
F0.7849014586348958
sg11
F0.08389200942199673
sg12
F0.0
sg13
F0.0011841738645862357
sg14
F0.0
sg15
F0.0
sg16
F0.0
sg17
F0.7716538631639595
sg18
F0.0
sg19
F0.10677008087830771
sg20
F0.12786885245901639
sg21
F0.0
sg22
F0.1190616740869984
sg23
F0.0004292432540418157
sg24
F0.4202236795234045
sg25
F0.008847033906296046
sg26
F0.11779759420414072
sg27
F0.08345034894252543
ssS'DUNCAN JOHN H'
p124
(dp125
g3
F0.12921488941897102
sg4
F0.0
sg5
F0.008990677846079789
sg6
F0.0
sg7
I00
sg8
F0.9928660826746826
sg9
F0.0
sg10
F0.9999999999999999
sg11
F0.1914346399307443
sg12
F0.0
sg13
F0.045748390142720044
sg14
F0.0
sg15
F0.0
sg16
F0.8197130380536494
sg17
F1.0
sg18
F0.0
sg19
F0.007569729374080815
sg20
F0.1918032786885246
sg21
F0.05956942163838715
sg22
F0.0
sg23
F0.0
sg24
F0.29469724683506493
sg25
F0.0007482826853468121
sg26
F0.0108229254686334
sg27
F0.0
ssS'SHAPIRO RICHARD S'
p126
(dp127
g3
F1.0
sg4
F0.0
sg5
F0.03042046334870064
sg6
F0.6022258844306116
sg7
I00
sg8
F1.0
sg9
F0.0
sg10
F0.9999999999999999
sg11
F0.8198949084979162
sg12
F0.0
sg13
F0.08379771524101422
sg14
F2.4156743819590005
sg15
F0.6146293123338137
sg16
F0.0
sg17
F0.6158423345062467
sg18
F0.09285714285714285
sg19
F0.02009772820967623
sg20
F0.24262295081967214
sg21
F0.10673234811165845
sg22
F0.025685669950887748
sg23
F0.24213638956929892
sg24
F0.1747245029968404
sg25
F0.010211955522159068
sg26
F0.017696232812582972
sg27
F6.805197317420175e-05
ssS'SHERRIFF JOHN R'
p128
(dp129
g3
F0.20739464617015635
sg4
F0.0
sg5
F0.08066960972404628
sg6
F0.0
sg7
I00
sg8
F1.0
sg9
F0.10775028889691327
sg10
F0.9999999999999999
sg11
F0.3806849066859938
sg12
F0.0
sg13
F0.005572582892170521
sg14
F3.4982974952189934
sg15
F0.34598979376240374
sg16
F0.0
sg17
F0.5866310512492562
sg18
F0.21428571428571427
sg19
F0.06371364346030972
sg20
F0.09180327868852459
sg21
F0.03776683087027914
sg22
F0.08762029615300249
sg23
F0.385850990499056
sg24
F0.4664293752994086
sg25
F0.04186362172431148
sg26
F0.05343942818387031
sg27
F0.1787871091994781
ssS'SHELBY REX'
p130
(dp131
g3
F0.011131725417439703
sg4
F0.0
sg5
F0.04412254660303048
sg6
F0.10003365928930816
sg7
I01
sg8
F0.9988109186602161
sg9
F0.0
sg10
F0.9999999999999999
sg11
F0.016126109802500455
sg12
F0.0
sg13
F0.0018807467261075508
sg14
F0.9440909348388437
sg15
F0.09980612659908128
sg16
F0.0
sg17
F0.6514218708895034
sg18
F0.02857142857142857
sg19
F0.050776054560532365
sg20
F0.04262295081967213
sg21
F0.022988505747126436
sg22
F0.05888348586551109
sg23
F0.19063439813256686
sg24
F0.38980687468284103
sg25
F0.019350029021398294
sg26
F0.04729177361007726
sg27
F0.15186922360613872
ssS'LEMAISTRE CHARLES'
p132
(dp133
g3
F0.12921488941897102
sg4
F0.0
sg5
F0.009985347915894368
sg6
F0.0
sg7
I00
sg8
F0.9928660826746826
sg9
F0.0
sg10
F0.9999999999999999
sg11
F0.1914346399307443
sg12
F0.0
sg13
F0.045748390142720044
sg14
F0.0
sg15
F0.0
sg16
F0.8996912839707599
sg17
F1.0
sg18
F0.0
sg19
F0.008407194954974415
sg20
F0.1918032786885246
sg21
F0.05956942163838715
sg22
F0.0
sg23
F0.0
sg24
F0.29469724683506493
sg25
F0.0008448452576570909
sg26
F0.012020303487931193
sg27
F0.0
ssS'DEFFNER JOSEPH M'
p134
(dp135
g3
F0.04353299761463027
sg4
F0.0
sg5
F0.014931127659064014
sg6
F0.18196124373259664
sg7
I00
sg8
F1.0
sg9
F0.06517409415804382
sg10
F0.9999999999999999
sg11
F0.09965573473455336
sg12
F0.0
sg13
F0.004318751741432154
sg14
F2.910911551952494
sg15
F0.49642203815996205
sg16
F0.0
sg17
F0.10915074963413332
sg18
F0.0857142857142857
sg19
F0.0032419211388749983
sg20
F0.3770491803278688
sg21
F0.006568144499178982
sg22
F0.009608179115486339
sg23
F0.1854843789651008
sg24
F0.4231580675363159
sg25
F0.01167102564602461
sg26
F0.0005059335542539643
sg27
F0.0024665703127948616
ssS'KISHKILL JOSEPH G'
p136
(dp137
g3
F0.12921488941897102
sg4
F0.0
sg5
F0.0
sg6
F0.5085394054108401
sg7
I00
sg8
F0.9854348236752458
sg9
F0.0
sg10
F0.9999999999999999
sg11
F0.1914346399307443
sg12
F0.0
sg13
F0.045748390142720044
sg14
F0.0
sg15
F0.0
sg16
F0.0
sg17
F0.0
sg18
F0.0
sg19
F0.02106178695134632
sg20
F0.1918032786885246
sg21
F0.05956942163838715
sg22
F0.07006960041306912
sg23
F0.15680067095130024
sg24
F0.29469724683506493
sg25
F0.006806657097122626
sg26
F0.0
sg27
F0.04491980436940001
ssS'HAYSLETT RODERICK J'
p138
(dp139
g3
F0.17174662072621255
sg4
F0.0
sg5
F0.0
sg6
F0.0
sg7
I00
sg8
F1.0
sg9
F0.0
sg10
F0.9999999999999999
sg11
F0.10309838738901975
sg12
F0.0
sg13
F0.07307049317358597
sg14
F0.0
sg15
F0.0
sg16
F0.0
sg17
F0.0
sg18
F0.0
sg19
F0.007058897361148561
sg20
F0.11475409836065574
sg21
F0.06239737274220033
sg22
F0.023483957870959794
sg23
F0.0
sg24
F0.12190146545546993
sg25
F0.0
sg26
F0.0
sg27
F0.0
ssS'MCCONNELL MICHAEL S'
p140
(dp141
g3
F0.21680360455870656
sg4
F0.0
sg5
F0.06585529436894075
sg6
F0.3556694045802862
sg7
I00
sg8
F1.0
sg9
F0.10775028889691327
sg10
F0.9999999999999999
sg11
F0.39626743975357853
sg12
F0.0
sg13
F0.19016439119531905
sg14
F3.013384907872605
sg15
F0.5234695178940917
sg16
F0.0
sg17
F0.5233356947246603
sg18
F0.15714285714285714
sg19
F0.06314954335849354
sg20
F0.3016393442622951
sg21
F0.3185550082101806
sg22
F0.10014223299846209
sg23
F0.3284907735197407
sg24
F0.3714358666135169
sg25
F0.02029131132002166
sg26
F0.04725142236676986
sg27
F5.2124915622792834e-05
ssS'DELAINEY DAVID W'
p142
(dp143
g3
F0.20116618075801748
sg4
F0.0
sg5
F0.12796420290572902
sg6
F0.3766955320571946
sg7
I01
sg8
F1.0
sg9
F0.2516757575745797
sg10
F0.9999999999999999
sg11
F0.3795977532161623
sg12
F0.0
sg13
F0.21294232376706607
sg14
F8.215509238340138
sg15
F0.6318477819720769
sg16
F0.0
sg17
F0.6339091172441614
sg18
F0.42857142857142855
sg19
F0.07359509793488823
sg20
F0.21639344262295082
sg21
F1.0
sg22
F0.08963388619219446
sg23
F0.3286032586492066
sg24
F0.4489284533302563
sg25
F0.0458477065515185
sg26
F0.06670220642694573
sg27
F0.00016033237935084981
ssS'SULLIVAN-SHAKLOVITZ COLLEEN'
p144
(dp145
g3
F0.12921488941897102
sg4
F0.05811019649665055
sg5
F0.035367162112067065
sg6
F0.0
sg7
I00
sg8
F1.0
sg9
F0.10775028889691327
sg10
F0.9999999999999999
sg11
F0.1914346399307443
sg12
F0.0
sg13
F0.045748390142720044
sg14
F0.6143298582741017
sg15
F0.10006444150032621
sg16
F0.0
sg17
F1.0
sg18
F0.014285714285714285
sg19
F0.027741250991293476
sg20
F0.1918032786885246
sg21
F0.05956942163838715
sg22
F0.0
sg23
F0.14648173511461784
sg24
F0.29469724683506493
sg25
F0.009650038601371093
sg26
F0.03966343802375098
sg27
F1.563747468683785e-05
ssS'WROBEL BRUCE'
p146
(dp147
g3
F0.12921488941897102
sg4
F0.0
sg5
F0.003364823157296788
sg6
F0.0
sg7
I00
sg8
F1.0
sg9
F0.0
sg10
F0.9999999999999999
sg11
F0.1914346399307443
sg12
F0.0
sg13
F0.045748390142720044
sg14
F0.0
sg15
F0.0
sg16
F0.0
sg17
F1.0
sg18
F0.0
sg19
F0.0028330233969491967
sg20
F0.1918032786885246
sg21
F0.05956942163838715
sg22
F0.0
sg23
F0.0
sg24
F0.29469724683506493
sg25
F0.0
sg26
F0.004050554459854647
sg27
F0.0
ssS'LINDHOLM TOD A'
p148
(dp149
g3
F0.12921488941897102
sg4
F0.0651609586635418
sg5
F0.06649258650592003
sg6
F0.2523441290768175
sg7
I00
sg8
F1.0
sg9
F0.03401073650930126
sg10
F0.9999999999999999
sg11
F0.1914346399307443
sg12
F0.0
sg13
F0.045748390142720044
sg14
F0.8458197473536415
sg15
F0.22833943570475254
sg16
F0.0
sg17
F0.8319804008083003
sg18
F0.02857142857142857
sg19
F0.06239468811269247
sg20
F0.1918032786885246
sg21
F0.05956942163838715
sg22
F0.03487723021490623
sg23
F0.21278317006491743
sg24
F0.29469724683506493
sg25
F0.008457809489827774
sg26
F0.0742206969620463
sg27
F0.00025386764460730586
ssS'MEYER JEROME J'
p150
(dp151
g3
F0.12921488941897102
sg4
F0.0
sg5
F0.0
sg6
F0.009402744324912683
sg7
I00
sg8
F0.989057712249735
sg9
F0.0
sg10
F0.9999999999999999
sg11
F0.1914346399307443
sg12
F0.0
sg13
F0.045748390142720044
sg14
F0.0
sg15
F0.0
sg16
F0.3066845817937521
sg17
F0.0
sg18
F0.0
sg19
F0.0
sg20
F0.1918032786885246
sg21
F0.05956942163838715
sg22
F0.0
sg23
F0.0
sg24
F0.29469724683506493
sg25
F2.077060930394096e-05
sg26
F0.0
sg27
F0.0
ssS'LAY KENNETH L'
p152
(dp153
g3
F0.279353299761463
sg4
F0.06478929454062442
sg5
F1.0
sg6
F0.4363992428845574
sg7
I01
sg8
F0.9143929920961903
sg9
F0.6996494367627687
sg10
F0.9999999999999999
sg11
F0.4364921181373437
sg12
F1.0
sg13
F0.0016717748676511562
sg14
F6.527896031132468
sg15
F0.06759380061719514
sg16
F0.0
sg17
F0.6994161972212709
sg18
F0.9999999999999999
sg19
F1.0
sg20
F0.40327868852459015
sg21
F0.026272577996715927
sg22
F0.9999999999999999
sg23
F0.9649613321118948
sg24
F0.5181304442154276
sg25
F1.0
sg26
F1.0
sg27
F1.0
ssS'BUTTS ROBERT H'
p154
(dp155
g3
F0.12921488941897102
sg4
F0.0
sg5
F0.018138556515292108
sg6
F0.04113427433632187
sg7
I00
sg8
F0.9785982480240476
sg9
F0.03401073650930126
sg10
F0.9999999999999999
sg11
F0.1914346399307443
sg12
F0.0
sg13
F0.045748390142720044
sg14
F2.8678933602532926
sg15
F0.5898164648445794
sg16
F0.0
sg17
F0.0
sg18
F0.10714285714285714
sg19
F0.008503733184866863
sg20
F0.1918032786885246
sg21
F0.05956942163838715
sg22
F0.028290723273358732
sg23
F0.23533328893920225
sg24
F0.29469724683506493
sg25
F0.012278722882344889
sg26
F0.0
sg27
F0.014542465348273106
ssS'OLSON CINDY K'
p156
(dp157
g3
F0.07467532467532466
sg4
F0.02481464688715332
sg5
F0.05772980148389838
sg6
F0.278851912241053
sg7
I00
sg8
F1.0
sg9
F0.019434706576743576
sg10
F0.9999999999999999
sg11
F0.15473817720601557
sg12
F0.0
sg13
F0.0027862914460852605
sg14
F2.279094925823057
sg15
F0.5675124114964394
sg16
F0.0
sg17
F0.6279949500587511
sg18
F0.10714285714285714
sg19
F0.05308000121685818
sg20
F0.06557377049180328
sg21
F0.02463054187192118
sg22
F0.06569225727074413
sg23
F0.296131051474995
sg24
F0.5195689787721337
sg25
F0.012761294337465506
sg26
F0.047659709405834055
sg27
F9.38248481210271e-05
ssS'MCDONALD REBECCA'
p158
(dp159
g3
F0.0554598462761728
sg4
F0.0
sg5
F0.01831512931678297
sg6
F0.0
sg7
I00
sg8
F1.0
sg9
F0.0
sg10
F0.9999999999999999
sg11
F0.13009603188983512
sg12
F0.0
sg13
F6.965728615213149e-05
sg14
F0.0
sg15
F0.0
sg16
F0.0
sg17
F0.4477451953036776
sg18
F0.0
sg19
F0.03444030367860544
sg20
F0.17704918032786884
sg21
F0.0016420361247947454
sg22
F0.0632762743896466
sg23
F0.0
sg24
F0.45200157501111626
sg25
F0.0
sg26
F0.022047645676722374
sg27
F0.0
ssS'CUMBERLAND MICHAEL S'
p160
(dp161
g3
F0.12921488941897102
sg4
F0.0
sg5
F0.00786004115662658
sg6
F0.09767313770146396
sg7
I00
sg8
F1.0
sg9
F0.05344544308604483
sg10
F0.9999999999999999
sg11
F0.1914346399307443
sg12
F0.0
sg13
F0.045748390142720044
sg14
F1.7577163748857485
sg15
F0.4022496274549604
sg16
F0.0
sg17
F0.0
sg18
F0.04642857142857142
sg19
F0.004234161468853704
sg20
F0.1918032786885246
sg21
F0.05956942163838715
sg22
F0.014086459182801105
sg23
F0.16638710362490078
sg24
F0.29469724683506493
sg25
F0.007801830967352358
sg26
F0.0
sg27
F6.882419414639128e-05
ssS'GAHN ROBERT S'
p162
(dp163
g3
F0.12921488941897102
sg4
F0.023347786938113454
sg5
F0.014344139785487141
sg6
F0.21891652059117953
sg7
I00
sg8
F0.9997026583258808
sg9
F0.0
sg10
F0.9999999999999999
sg11
F0.1914346399307443
sg12
F0.0
sg13
F0.045748390142720044
sg14
F2.6554622724053165
sg15
F0.5661542219779365
sg16
F0.0
sg17
F0.2612528914932817
sg18
F0.07283857142857142
sg19
F0.006487609325320151
sg20
F0.1918032786885246
sg21
F0.05956942163838715
sg22
F0.015944647003250437
sg23
F0.17278435790788457
sg24
F0.29469724683506493
sg25
F0.00869628041840524
sg26
F0.002423316334183291
sg27
F0.007388899844773931
ssS'BADUM JAMES P'
p164
(dp165
g3
F0.12921488941897102
sg4
F0.057148148384665975
sg5
F0.0062352376334707535
sg6
F0.015238478250416371
sg7
I00
sg8
F1.0
sg9
F0.0
sg10
F0.9999999999999999
sg11
F0.1914346399307443
sg12
F0.0
sg13
F0.045748390142720044
sg14
F0.0
sg15
F0.0
sg16
F0.0
sg17
F1.0
sg18
F0.0
sg19
F0.005249777856186667
sg20
F0.1918032786885246
sg21
F0.05956942163838715
sg22
F0.0
sg23
F0.0
sg24
F0.29469724683506493
sg25
F0.0017619386319167323
sg26
F0.007505942637650726
sg27
F0.0
ssS'HERMANN ROBERT J'
p166
(dp167
g3
F0.12921488941897102
sg4
F0.0
sg5
F0.02146395854309566
sg6
F0.21138470819144706
sg7
I00
sg8
F0.9201001259564443
sg9
F0.029152059865115366
sg10
F0.9999999999999999
sg11
F0.1914346399307443
sg12
F0.0
sg13
F0.045748390142720044
sg14
F2.665011821231007
sg15
F0.5395152532523135
sg16
F0.0
sg17
F0.2806331682960852
sg18
F0.09999999999999999
sg19
F0.013604783930499968
sg20
F0.1918032786885246
sg21
F0.05956942163838715
sg22
F0.03255940679978869
sg23
F0.2363654524871812
sg24
F0.29469724683506493
sg25
F0.012528617163226658
sg26
F0.005458772092451278
sg27
F0.04019805923494717
ssS'SCRIMSHAW MATTHEW'
p168
(dp169
g3
F0.12921488941897102
sg4
F0.0
sg5
F0.01836969009478097
sg6
F0.0
sg7
I00
sg8
F1.0
sg9
F0.0
sg10
F0.9999999999999999
sg11
F0.1914346399307443
sg12
F0.0
sg13
F0.045748390142720044
sg14
F0.0
sg15
F0.0
sg16
F0.0
sg17
F1.0
sg18
F0.0
sg19
F0.015466418114831746
sg20
F0.1918032786885246
sg21
F0.05956942163838715
sg22
F0.0
sg23
F0.0
sg24
F0.29469724683506493
sg25
F0.0
sg26
F0.02211332562253875
sg27
F0.0
ssS'GATHMANN WILLIAM D'
p170
(dp171
g3
F0.12921488941897102
sg4
F0.0
sg5
F0.042414378274130374
sg6
F0.0
sg7
I00
sg8
F1.0
sg9
F0.0
sg10
F0.9721945563238867
sg11
F0.1914346399307443
sg12
F0.0
sg13
F0.045748390142720044
sg14
F0.0
sg15
F0.0
sg16
F0.0
sg17
F0.9015123164864087
sg18
F0.0
sg19
F0.03961223600581534
sg20
F0.1918032786885246
sg21
F0.05956942163838715
sg22
F0.017885006964647822
sg23
F0.0
sg24
F0.29469724683506493
sg25
F0.0
sg26
F0.05105818078661284
sg27
F0.0
ssS'HAEDICKE MARK E'
p172
(dp173
g3
F0.26186058839120063
sg4
F0.6888963746783061
sg5
F0.042534915028359994
sg6
F0.3329603126379703
sg7
I00
sg8
F0.733338736086721
sg9
F0.1911104097341449
sg10
F0.873362923259448
sg11
F0.33429969197318354
sg12
F0.0
sg13
F0.1343689049874617
sg14
F3.073838957567658
sg15
F0.29799964499172726
sg16
F0.0
sg17
F0.7580059121348186
sg18
F0.16428571428571428
sg19
F0.01635293676381455
sg20
F0.5901639344262295
sg21
F0.10016420361247948
sg22
F0.03550872955366775
sg23
F0.3366679924913926
sg24
F0.24787375090069286
sg25
F0.037264124311256586
sg26
F0.017722813393491816
sg27
F0.005056309870653952
ssS'BOWEN JR RAYMOND M'
p174
(dp175
g3
F0.11933474688576728
sg4
F0.0
sg5
F0.0326494017275258
sg6
F0.2881016597963832
sg7
I01
sg8
F0.9997622978747204
sg9
F0.1893509857477523
sg10
F0.9999999999999999
sg11
F0.2882768617503171
sg12
F0.0
sg13
F0.001044859292281973
sg14
F4.845639462887786
sg15
F0.5056958205926081
sg16
F0.0
sg17
F0.0
sg18
F0.19285714285714284
sg19
F0.005132449596190827
sg20
F0.45901639344262296
sg21
F0.02463054187192118
sg22
F0.017074937334427876
sg23
F0.25070775643459936
sg24
F0.7296313971020487
sg25
F0.025778238085122473
sg26
F0.0
sg27
F0.0001564712744899022
ssS'GILLIS JOHN'
p176
(dp177
g3
F0.12921488941897102
sg4
F0.0
sg5
F0.00023708302602587806
sg6
F0.0
sg7
I00
sg8
F1.0
sg9
F0.0
sg10
F0.9999999999999999
sg11
F0.1914346399307443
sg12
F0.0
sg13
F0.045748390142720044
sg14
F0.0
sg15
F0.0
sg16
F0.0
sg17
F0.11446620193598861
sg18
F0.0
sg19
F0.0017438579511113788
sg20
F0.1918032786885246
sg21
F0.05956942163838715
sg22
F0.005137486253271473
sg23
F0.0
sg24
F0.29469724683506493
sg25
F0.0
sg26
F0.00028539916171893266
sg27
F0.0
ssS'FITZGERALD JAY L'
p178
(dp179
g3
F0.058242777630532726
sg4
F0.0
sg5
F0.02453447757474633
sg6
F0.1043437968552607
sg7
I00
sg8
F1.0
sg9
F0.10813781694605354
sg10
F0.9999999999999999
sg11
F0.13063960862475085
sg12
F0.0
sg13
F0.00027862914460852607
sg14
F1.7574074724965731
sg15
F0.24737482303865338
sg16
F0.0
sg17
F0.40984841195236227
sg18
F0.049999999999999996
sg19
F0.033012287213227395
sg20
F0.003278688524590164
sg21
F0.013136288998357963
sg22
F0.06481471570945718
sg23
F0.17921760743229745
sg24
F0.6561252045399646
sg25
F0.013662223137120406
sg26
F0.0193447528710521
sg27
F0.02755033456956258
ssS'MORAN MICHAEL P'
p180
(dp181
g3
F0.04075006626027034
sg4
F0.0
sg5
F0.001439935355151969
sg6
F0.0
sg7
I00
sg8
F1.0
sg9
F0.0
sg10
F0.9999999999999999
sg11
F0.022649030621489402
sg12
F0.0
sg13
F0.00048760100306492065
sg14
F0.0
sg15
F0.0
sg16
F0.0
sg17
F0.2692354651557151
sg18
F0.0
sg19
F0.004502965766008354
sg20
F0.0
sg21
F0.0
sg22
F0.010947388558521806
sg23
F0.0
sg24
F0.08926406655429223
sg25
F0.0
sg26
F0.0017333857685997687
sg27
F0.0
ssS'REDMOND BRIAN L'
p182
(dp183
g3
F0.10694407633183142
sg4
F0.0
sg5
F0.18160417103604337
sg6
F0.0642105585256357
sg7
I00
sg8
F1.0
sg9
F0.0
sg10
F0.9999999999999999
sg11
F0.19224497191520204
sg12
F0.0
sg13
F0.014558372805795488
sg14
F0.0
sg15
F0.0
sg16
F0.0
sg17
F0.951676889314051
sg18
F0.0
sg19
F0.16066608568611926
sg20
F0.6688524590163935
sg21
F0.08045977011494253
sg22
F0.025829352647467153
sg23
F0.08714447949981012
sg24
F0.4392214832694716
sg25
F0.001076952712719308
sg26
F0.218614040183084
sg27
F0.0
ssS'BAZELIDES PHILIP J'
p184
(dp185
g3
F0.12921488941897102
sg4
F0.21862216063297849
sg5
F0.038686904910237845
sg6
F0.0
sg7
I00
sg8
F1.0
sg9
F0.018220037415697103
sg10
F0.9999999999999999
sg11
F0.1914346399307443
sg12
F0.0
sg13
F0.045748390142720044
sg14
F0.0
sg15
F0.0
sg16
F0.0
sg17
F1.0
sg18
F0.0
sg19
F0.03257256076848422
sg20
F0.1918032786885246
sg21
F0.05956942163838715
sg22
F0.0
sg23
F0.0727265855453909
sg24
F0.29469724683506493
sg25
F0.008305694469667392
sg26
F0.04657107012661789
sg27
F8.436514121170544e-05
ssS'BELDEN TIMOTHY N'
p186
(dp187
g3
F0.5257089848926583
sg4
F0.6845813669831985
sg5
F0.15002121969264867
sg6
F0.07586454103154794
sg7
I01
sg8
F0.3338536337035931
sg9
F0.0
sg10
F0.9999999999999999
sg11
F1.0
sg12
F0.0
sg13
F0.032878239063806075
sg14
F24.532820246823583
sg15
F0.9542624640333864
sg16
F0.0
sg17
F0.8581360487258093
sg18
F0.7499998571428571
sg19
F0.02261664092653243
sg20
F0.7475409836065574
sg21
F0.17733990147783252
sg22
F0.010674181432022638
sg23
F0.1925736417645587
sg24
F0.4686135027285443
sg25
F0.05312515446993989
sg26
F0.027749078384590085
sg27
F0.020338176799798525
ssS'DURAN WILLIAM D'
p188
(dp189
g3
F0.05612244897959183
sg4
F0.0
sg5
F0.05325163372769296
sg6
F0.11271490581956
sg7
I00
sg8
F1.0
sg9
F0.21479587533335381
sg10
F0.9999999999999999
sg11
F0.10817177024823338
sg12
F0.0
sg13
F0.0
sg14
F3.559698517266911
sg15
F0.3582922929416896
sg16
F0.0
sg17
F0.8847950222742259
sg18
F0.10714285714285714
sg19
F0.03341289745049886
sg20
F0.3475409836065574
sg21
F0.0049261083743842365
sg22
F0.012806186065095239
sg23
F0.18959773517940928
sg24
F0.4678642046740266
sg25
F0.020213085980193102
sg26
F0.04226891722184077
sg27
F0.0001513553105491466
ssS'THORN TERENCE H'
p190
(dp191
g3
F0.013848396501457725
sg4
F0.005295894452497877
sg5
F0.10768198341197566
sg6
F0.20171531235383347
sg7
I00
sg8
F1.0
sg9
F0.03886941315348715
sg10
F0.9999999999999999
sg11
F0.012864649393005979
sg12
F0.0
sg13
F0.002020061298411814
sg14
F0.0
sg15
F0.0
sg16
F0.0
sg17
F0.9241727960254025
sg18
F0.0
sg19
F0.09810198224486633
sg20
F0.0
sg21
F0.0
sg22
F0.02474783720621766
sg23
F0.1998572788677337
sg24
F0.1339705559476294
sg25
F0.00880122462199205
sg26
F0.12962694256591517
sg27
F0.04118148264303052
ssS'FASTOW ANDREW S'
p192
(dp193
g3
F0.15638370375979704
sg4
F0.0
sg5
F0.03144016462650632
sg6
F0.24444949576636085
sg7
I01
sg8
F0.6044799288662835
sg9
F0.3373971952608857
sg10
F0.9999999999999999
sg11
F0.32270338829498096
sg12
F0.0
sg13
F0.020086176014011067
sg14
F2.949865894558178
sg15
F0.5362852674599013
sg16
F0.0
sg17
F0.0
sg18
F0.1857142857142857
sg19
F0.03653856953760082
sg20
F0.3206088992974239
sg21
F0.10954726718273515
sg22
F0.12155867747969845
sg23
F0.3965757726828513
sg24
F0.4925350552619833
sg25
F0.023407568997361745
sg26
F0.0
sg27
F0.02678293997844924
ssS'FOY JOE'
p194
(dp195
g3
F0.0
sg4
F0.05803420331687879
sg5
F0.00830586269103044
sg6
F0.0
sg7
I00
sg8
F1.0
sg9
F0.0
sg10
F0.9999999999999999
sg11
F0.0
sg12
F0.0
sg13
F6.965728615213149e-05
sg14
F0.0
sg15
F0.0
sg16
F0.0
sg17
F1.0
sg18
F0.0
sg19
F0.006993147109234891
sg20
F0.0
sg21
F0.0
sg22
F0.0
sg23
F0.0
sg24
F0.008743212605705996
sg25
F0.0017550730330254715
sg26
F0.009998548985594198
sg27
F0.0
ssS'CALGER CHRISTOPHER F'
p196
(dp197
g3
F0.1683673469387755
sg4
F0.0
sg5
F0.030230927525486846
sg6
F0.15657252265445026
sg7
I01
sg8
F0.9250938680841665
sg9
F0.07293923117078172
sg10
F0.9999999999999999
sg11
F0.3960862475086066
sg12
F0.0
sg13
F0.00919476177208136
sg14
F5.204234998272194
sg15
F0.7625219835087845
sg16
F0.0
sg17
F0.0
sg18
F0.17857142857142855
sg19
F0.0025662146168857645
sg20
F0.6524590163934426
sg21
F0.041050903119868636
sg22
F0.0085374347957626
sg23
F0.21614152609025086
sg24
F0.5218516514177025
sg25
F0.015829473510052303
sg26
F0.0
sg27
F4.691242406051355e-05
ssS'RICE KENNETH D'
p198
(dp199
g3
F0.05618870924993374
sg4
F0.0
sg5
F0.5210403144171245
sg6
F0.20523423805423083
sg7
I01
sg8
F0.0
sg9
F0.31426134316366705
sg10
F0.9999999999999999
sg11
F0.1561877151657909
sg12
F0.0
sg13
F0.00041794371691278906
sg14
F4.160366682832663
sg15
F3.465003465003465
sg16
F0.0
sg17
F0.8780809916753388
sg18
F0.24999999999999997
sg19
F0.459020631162508
sg20
F0.1377049180327869
sg21
F0.006568144499178982
sg22
F0.18618215497489649
sg23
F0.3785223593440947
sg24
F0.606150316229123
sg25
F0.004876892714530628
sg26
F0.5762767471098494
sg27
F0.016876792819580513
ssS'KAMINSKI WINCENTY J'
p200
(dp201
g3
F0.3014842300556586
sg4
F0.0
sg5
F0.03023116937290705
sg6
F0.36537814244436384
sg7
I00
sg8
F1.0
sg9
F0.06286466797552938
sg10
F0.9999999999999999
sg11
F0.10527269432868273
sg12
F0.0
sg13
F1.0
sg14
F1.4540114357999425
sg15
F0.368045887961311
sg16
F0.0
sg17
F0.8708788703706929
sg18
F0.05714285714285714
sg19
F0.019874474644491505
sg20
F0.13442622950819672
sg21
F0.28078817733990147
sg22
F0.0085374347957626
sg23
F0.24755817280955458
sg24
F0.06282143430591894
sg25
F0.010494623140082947
sg26
F0.024746724620290723
sg27
F0.00045068746489411064
ssS'LOCKHART EUGENE E'
p202
(dp203
g3
F0.12921488941897102
sg4
F0.0
sg5
F0.0
sg6
F0.0
sg7
I00
sg8
F1.0
sg9
F0.0
sg10
F0.9999999999999999
sg11
F0.1914346399307443
sg12
F0.0
sg13
F0.045748390142720044
sg14
F0.0
sg15
F0.0
sg16
F0.0
sg17
F0.0
sg18
F0.0
sg19
F0.0
sg20
F0.1918032786885246
sg21
F0.05956942163838715
sg22
F0.0
sg23
F0.0
sg24
F0.29469724683506493
sg25
F0.0
sg26
F0.0
sg27
F0.0
ssS'COX DAVID'
p204
(dp205
g3
F0.0029817121653856345
sg4
F0.0
sg5
F0.022190734225550384
sg6
F0.12178979992393876
sg7
I00
sg8
F0.9882290364132261
sg9
F0.0
sg10
F0.9999999999999999
sg11
F0.012502264903062148
sg12
F0.0
sg13
F0.0014628030091947616
sg14
F2.5454360331924857
sg15
F0.7263529003725282
sg16
F0.0
sg17
F0.23717347311417925
sg18
F0.11428571428571428
sg19
F0.010092286963991382
sg20
F0.0
sg21
F0.006568144499178982
sg22
F0.025612372130190478
sg23
F0.28282181095659154
sg24
F0.41799263589394436
sg25
F0.010635334120453485
sg26
F0.0034223152972786145
sg27
F4.768464503270307e-05
ssS'OVERDYKE JR JERE C'
p206
(dp207
g3
F0.12921488941897102
sg4
F0.0
sg5
F0.12737083026025878
sg6
F0.08232974738047674
sg7
I00
sg8
F1.0
sg9
F0.026399328025585405
sg10
F0.9999999999999999
sg11
F0.1914346399307443
sg12
F0.0
sg13
F0.045748390142720044
sg14
F0.0
sg15
F0.0
sg16
F0.0
sg17
F0.7206993163550137
sg18
F0.0
sg19
F0.14880029308851841
sg20
F0.1918032786885246
sg21
F0.05956942163838715
sg22
F0.1382643482516302
sg23
F0.08543560541296441
sg24
F0.29469724683506493
sg25
F0.00241200752496676
sg26
F0.15332826138196196
sg27
F1.6988861388169517e-05
ssS'PEREIRA PAULO V. FERRAZ'
p208
(dp209
g3
F0.12921488941897102
sg4
F0.0
sg5
F0.0
sg6
F0.12214387816211539
sg7
I00
sg8
F0.9711076348324642
sg9
F0.0
sg10
F0.9999999999999999
sg11
F0.1914346399307443
sg12
F0.0
sg13
F0.045748390142720044
sg14
F0.0
sg15
F0.0
sg16
F0.8097797399107443
sg17
F0.0
sg18
F0.0
sg19
F0.0
sg20
F0.1918032786885246
sg21
F0.05956942163838715
sg22
F0.0
sg23
F0.0
sg24
F0.29469724683506493
sg25
F0.0002698151395493809
sg26
F0.0
sg27
F0.0
ssS'STABLER FRANK'
p210
(dp211
g3
F0.12921488941897102
sg4
F0.0
sg5
F0.012092371010194738
sg6
F0.07218824722529431
sg7
I00
sg8
F1.0
sg9
F0.0
sg10
F0.9999999999999999
sg11
F0.1914346399307443
sg12
F0.0
sg13
F0.045748390142720044
sg14
F2.0876652387036434
sg15
F0.44960511183027946
sg16
F0.0
sg17
F0.0
sg18
F0.07142857142857142
sg19
F0.010420142277110618
sg20
F0.1918032786885246
sg21
F0.05956942163838715
sg22
F0.03466634655887054
sg23
F0.21552330781870635
sg24
F0.29469724683506493
sg25
F0.010738598135282097
sg26
F0.0
sg27
F0.03437068672356198
ssS'SKILLING JEFFREY K'
p212
(dp213
g3
F0.23654916512059368
sg4
F0.0
sg5
F0.6009908392066785
sg6
F0.1282375209277724
sg7
I01
sg8
F1.0
sg9
F0.37314636627347664
sg10
F0.9999999999999999
sg11
F0.36963217974270696
sg12
F0.0
sg13
F0.006687099470604626
sg14
F5.03933380007163
sg15
F0.6449594804206426
sg16
F0.0
sg17
F0.7377267561269261
sg18
F0.7999999999999999
sg19
F0.5313302902919438
sg20
F0.28852459016393445
sg21
F0.04926108374384236
sg22
F0.46361020625410604
sg23
F1.0
sg24
F0.4302810349149452
sg25
F0.08384253915996143
sg26
F0.5604339348249978
sg27
F0.0021353840433470796
ssS'BLAKE JR. NORMAN P'
p214
(dp215
g3
F0.12921488941897102
sg4
F0.0
sg5
F0.0
sg6
F0.005590939094171698
sg7
I00
sg8
F0.9675309740422431
sg9
F0.0
sg10
F0.9999999999999999
sg11
F0.1914346399307443
sg12
F0.0
sg13
F0.045748390142720044
sg14
F0.0
sg15
F0.0
sg16
F0.9100244733432507
sg17
F0.0
sg18
F0.0
sg19
F0.0
sg20
F0.1918032786885246
sg21
F0.05956942163838715
sg22
F0.0
sg23
F0.0
sg24
F0.29469724683506493
sg25
F1.2350352998484652e-05
sg26
F0.0
sg27
F0.0
ssS'SHERRICK JEFFREY B'
p216
(dp217
g3
F0.036840710310098064
sg4
F0.0
sg5
F0.03449878476508296
sg6
F0.0
sg7
I00
sg8
F1.0
sg9
F0.0
sg10
F0.9999999999999999
sg11
F0.10527269432868273
sg12
F0.0
sg13
F0.0009055447199777098
sg14
F0.0
sg15
F0.0
sg16
F0.0
sg17
F0.7784414243522942
sg18
F0.0
sg19
F0.037313481766410556
sg20
F0.12786885245901639
sg21
F0.029556650246305417
sg22
F0.02750355074424385
sg23
F0.0
sg24
F0.864685981894278
sg25
F0.0
sg26
F0.04152943556238337
sg27
F0.0
ssS'PRENTICE JAMES'
p218
(dp219
g3
F0.12921488941897102
sg4
F0.1801957941925884
sg5
F0.021433268105471786
sg6
F0.0
sg7
I00
sg8
F1.0
sg9
F0.0
sg10
F0.9999999999999999
sg11
F0.1914346399307443
sg12
F0.0
sg13
F0.045748390142720044
sg14
F0.0
sg15
F0.0
sg16
F0.0
sg17
F0.8093138150204559
sg18
F0.0
sg19
F0.022297663628227184
sg20
F0.1918032786885246
sg21
F0.05956942163838715
sg22
F0.014145327765228028
sg23
F0.0
sg24
F0.29469724683506493
sg25
F0.005449489455816119
sg26
F0.025801242934747674
sg27
F0.0
ssS'GRAY RODNEY'
p220
(dp221
g3
F0.12921488941897102
sg4
F0.029881603903111887
sg5
F0.0
sg6
F0.0
sg7
I00
sg8
F1.0
sg9
F0.0710581459212187
sg10
F0.9999999999999999
sg11
F0.1914346399307443
sg12
F0.0
sg13
F0.045748390142720044
sg14
F0.0
sg15
F0.0
sg16
F0.0
sg17
F0.0
sg18
F0.0
sg19
F0.0
sg20
F0.1918032786885246
sg21
F0.05956942163838715
sg22
F0.0
sg23
F0.005952713051334614
sg24
F0.29469724683506493
sg25
F0.011072424604015961
sg26
F0.0
sg27
F0.06571919014483872
ssS'PICKERING MARK R'
p222
(dp223
g3
F0.055724887357540415
sg4
F0.0
sg5
F0.00795189480682002
sg6
F0.13836590707413352
sg7
I00
sg8
F1.0
sg9
F0.0
sg10
F0.9999999999999999
sg11
F0.13154556984961044
sg12
F0.004906470407850352
sg13
F0.003831150738367233
sg14
F0.45798939601885086
sg15
F0.21634251346732147
sg16
F0.0
sg17
F1.0
sg18
F0.04285714285714285
sg19
F0.0005863969509476242
sg20
F0.022950819672131147
sg21
F0.0
sg22
F0.0
sg23
F0.5894553739995573
sg24
F0.41453944057851955
sg25
F0.013390235339694044
sg26
F0.0008384091664981968
sg27
F0.0
ssS'NOLES JAMES L'
p224
(dp225
g3
F0.12921488941897102
sg4
F0.24726552272451513
sg5
F0.0
sg6
F0.0
sg7
I00
sg8
F1.0
sg9
F0.0
sg10
F0.9636950036283494
sg11
F0.1914346399307443
sg12
F0.0
sg13
F0.045748390142720044
sg14
F0.0
sg15
F0.0
sg16
F0.0
sg17
F0.0
sg18
F0.0
sg19
F0.007507725807318001
sg20
F0.1918032786885246
sg21
F0.05956942163838715
sg22
F0.03138264483737435
sg23
F0.0
sg24
F0.29469724683506493
sg25
F0.007477815255965217
sg26
F0.0
sg27
F0.0
ssS'KEAN STEVEN J'
p226
(dp227
g3
F0.8413066525311422
sg4
F0.0
sg5
F0.07308745125323399
sg6
F0.1833906706941245
sg7
I00
sg8
F1.0
sg9
F0.05830411973023073
sg10
F0.9999999999999999
sg11
F0.6589961949628556
sg12
F0.0
sg13
F0.4699777096684314
sg14
F2.473178380463869
sg15
F0.5722388616566773
sg16
F0.0
sg17
F0.32859370109603386
sg18
F0.14285714285714285
sg19
F0.12530303861459963
sg20
F0.45901639344262296
sg21
F0.6354679802955665
sg22
F0.27988617024577256
sg23
F0.3638560982238148
sg24
F0.1696231317137486
sg25
F0.016874521948880294
sg26
F0.05886879569065025
sg27
F0.00011882550209566293
ssS'FOWLER PEGGY'
p228
(dp229
g3
F0.030479724357275376
sg4
F0.0
sg5
F0.03203457721588345
sg6
F0.0
sg7
I00
sg8
F1.0
sg9
F0.0
sg10
F0.9999999999999999
sg11
F0.0014495379597753216
sg12
F0.0
sg13
F0.0016717748676511562
sg14
F0.0
sg15
F0.0
sg16
F0.0
sg17
F0.7027878528057863
sg18
F0.0
sg19
F0.03837802904731693
sg20
F0.0
sg21
F0.0
sg22
F0.03794754179296766
sg23
F0.0
sg24
F0.000505222364492245
sg25
F0.0
sg26
F0.03856303691026629
sg27
F0.0
ssS'WASAFF GEORGE'
p230
(dp231
g3
F0.022727272727272724
sg4
F0.2654330014751617
sg5
F0.04820647887956153
sg6
F0.0
sg7
I00
sg8
F0.8335443070483673
sg9
F0.03886941315348715
sg10
F0.9999999999999999
sg11
F0.060699402065591594
sg12
F0.0
sg13
F0.001253831150738367
sg14
F1.2500192310650933
sg15
F0.3141933207333755
sg16
F0.0
sg17
F0.8112420231790382
sg18
F0.04642857142857142
sg19
F0.04187382883000104
sg20
F0.07213114754098361
sg21
F0.011494252873563218
sg22
F0.02629555930369509
sg23
F0.23396546976489707
sg24
F0.5532625165618187
sg25
F0.009988384198489079
sg26
F0.0485688060317481
sg27
F0.00013755186067125887
ssS'WHITE JR THOMAS E'
p232
(dp233
g3
F0.12921488941897102
sg4
F0.0
sg5
F0.04225192936197942
sg6
F0.35562131988127454
sg7
I00
sg8
F1.0
sg9
F0.0
sg10
F0.9999999999999999
sg11
F0.1914346399307443
sg12
F0.0
sg13
F0.045748390142720044
sg14
F1.417130908254945
sg15
F0.23263520370313887
sg16
F0.0
sg17
F0.08564701963923563
sg18
F0.06428571428571428
sg19
F0.30837098242849464
sg20
F0.1918032786885246
sg21
F0.05956942163838715
sg22
F0.9380409863529212
sg23
F0.2857509237278832
sg24
F0.29469724683506493
sg25
F0.01867866808115385
sg26
F0.0377615727132898
sg27
F0.10477716164196958
ssS'ALLEN PHILLIP K'
p234
(dp235
g3
F0.188510469122714
sg4
F0.9162979826684462
sg5
F0.1427998008338125
sg6
F0.06062169144485778
sg7
I00
sg8
F0.12080033420975878
sg9
F0.05923795738124326
sg10
F0.95161163989879
sg11
F0.2545751041855408
sg12
F0.0
sg13
F0.1520618556701031
sg14
F20.672922185635414
sg15
F0.9309965431596617
sg16
F0.0
sg17
F1.0
sg18
F0.5964285714285714
sg19
F0.03521763903531165
sg20
F0.1540983606557377
sg21
F0.10673234811165845
sg22
F0.0085374347957626
sg23
F0.18173547457026182
sg24
F0.25954652801516975
sg25
F0.04330292548962511
sg26
F0.05035290743226814
sg27
F1.4672198471600946e-05
ssS'SHARP VICTORIA T'
p236
(dp237
g3
F0.2040153723827193
sg4
F0.05985867822955049
sg5
F0.02130852320613062
sg6
F0.5085481480833877
sg7
I00
sg8
F1.0
sg9
F0.08204516859024914
sg10
F0.9999999999999999
sg11
F0.4484508063054901
sg12
F0.0
sg13
F0.008637503482864309
sg14
F2.417931379107461
sg15
F0.38058725882661143
sg16
F0.0
sg17
F0.5688170867939191
sg18
F0.0857142857142857
sg19
F0.010061804422302078
sg20
F0.07868852459016393
sg21
F0.009852216748768473
sg22
F0.014433506073218966
sg23
F0.2233018794915312
sg24
F0.4267231827787921
sg25
F0.015223195743544988
sg26
F0.008183005057821643
sg27
F0.00023176281927838073
ssS'JAEDICKE ROBERT'
p238
(dp239
g3
F0.12921488941897102
sg4
F0.0
sg5
F0.010441762367303157
sg6
F0.0
sg7
I00
sg8
F0.9928660826746826
sg9
F0.0
sg10
F0.9830703899803799
sg11
F0.1914346399307443
sg12
F0.0
sg13
F0.045748390142720044
sg14
F0.0
sg15
F0.0
sg16
F0.8697634243485771
sg17
F1.0
sg18
F0.0
sg19
F0.008791474531968775
sg20
F0.1918032786885246
sg21
F0.05956942163838715
sg22
F0.0029869878077678617
sg23
F0.0
sg24
F0.29469724683506493
sg25
F0.0008087115430985846
sg26
F0.012569732538217809
sg27
F0.0
ssS'WINOKUR JR. HERBERT S'
p240
(dp241
g3
F0.12921488941897102
sg4
F0.0
sg5
F0.0
sg6
F0.006176698154858959
sg7
I00
sg8
F0.9928660826746826
sg9
F0.0
sg10
F0.9999999999999999
sg11
F0.1914346399307443
sg12
F0.0
sg13
F0.045748390142720044
sg14
F0.0
sg15
F0.0
sg16
F0.8683957963433946
sg17
F0.0
sg18
F0.0
sg19
F0.0
sg20
F0.1918032786885246
sg21
F0.05956942163838715
sg22
F0.0
sg23
F0.0
sg24
F0.29469724683506493
sg25
F0.0008207046145795212
sg26
F0.0
sg27
F0.0
ssS'BROWN MICHAEL'
p242
(dp243
g3
F0.09468592631857936
sg4
F0.0
sg5
F0.0
sg6
F0.2154544222623414
sg7
I00
sg8
F1.0
sg9
F0.0
sg10
F0.9999999999999999
sg11
F0.13752491393368363
sg12
F0.0
sg13
F0.002020061298411814
sg14
F0.0
sg15
F0.0
sg16
F0.0
sg17
F0.0
sg18
F0.0
sg19
F0.0
sg20
F0.04262295081967213
sg21
F0.0016420361247947454
sg22
F0.0
sg23
F0.0
sg24
F0.27108442146191564
sg25
F0.0004759376064029019
sg26
F0.0
sg27
F0.0
ssS'MCCLELLAN GEORGE'
p244
(dp245
g3
F0.11178107606679034
sg4
F0.0
sg5
F0.0340222486083132
sg6
F1.0
sg7
I00
sg8
F0.9643304133734126
sg9
F0.0
sg10
F0.9999999999999999
sg11
F0.2658090233737996
sg12
F0.0
sg13
F0.002577319587628866
sg14
F3.4166878627858153
sg15
F0.6824577274309334
sg16
F0.0
sg17
F0.534640627686971
sg18
F0.12857142857142856
sg19
F0.019300743118347317
sg20
F0.17049180327868851
sg21
F0.0
sg22
F0.029881123399523115
sg23
F0.23704036326397648
sg24
F0.431086247605637
sg25
F0.012734314754762013
sg26
F0.014753678076965716
sg27
F0.0049795704115426186
ssS'HUGHES JAMES A'
p246
(dp247
g3
F0.04386429896633978
sg4
F0.0
sg5
F0.01825865794416536
sg6
F0.0
sg7
I00
sg8
F1.0
sg9
F0.0
sg10
F0.9999999999999999
sg11
F0.10635984779851422
sg12
F0.0
sg13
F0.0015324602953468935
sg14
F0.0
sg15
F0.0
sg16
F0.0
sg17
F0.6750447516706992
sg18
F0.0
sg19
F0.022773207568515773
sg20
F0.11475409836065574
sg21
F0.008210180623973728
sg22
F0.024619667634351448
sg23
F0.0
sg24
F0.49592951396959956
sg25
F0.0
sg26
F0.02197966576826438
sg27
F0.0
ssS'REYNOLDS LAWRENCE'
p248
(dp249
g3
F0.12921488941897102
sg4
F0.016400796970490378
sg5
F0.10304325315349688
sg6
F0.036758566726262557
sg7
I00
sg8
F0.9429286613974602
sg9
F0.03036672902616184
sg10
F0.946145310598236
sg11
F0.1914346399307443
sg12
F0.0
sg13
F0.045748390142720044
sg14
F1.3089176559902616
sg15
F0.2535014893212498
sg16
F0.0
sg17
F0.9854996256416853
sg18
F0.014285714285714285
sg19
F0.08596791477301258
sg20
F0.1918032786885246
sg21
F0.05956942163838715
sg22
F0.01364904326021119
sg23
F0.06875001124851295
sg24
F0.29469724683506493
sg25
F0.0038091520712097214
sg26
F0.12113152106369837
sg27
F0.019503598984104698
ssS'DIMICHELE RICHARD G'
p250
(dp251
g3
F0.12921488941897102
sg4
F0.0
sg5
F0.22230022338962507
sg6
F0.15654629463680753
sg7
I00
sg8
F1.0
sg9
F0.13504439081329195
sg10
F0.9999999999999999
sg11
F0.1914346399307443
sg12
F0.0
sg13
F0.045748390142720044
sg14
F3.8053487982708494
sg15
F0.42227037042823706
sg16
F0.0
sg17
F0.9848484848484849
sg18
F0.14285714285714285
sg19
F0.16937016471446045
sg20
F0.1918032786885246
sg21
F0.05956942163838715
sg22
F0.0085374347957626
sg23
F0.23647793761664707
sg24
F0.29469724683506493
sg25
F0.022867475217915895
sg26
F0.23849025910505717
sg27
F0.036167837981090044
ssS'BHATNAGAR SANJAY'
p252
(dp253
g3
F0.03087728597932679
sg4
F0.0
sg5
F0.3738063862423257
sg6
F0.6026499040491688
sg7
I00
sg8
F1.0
sg9
F0.0
sg10
F0.0
sg11
F0.0835296249320529
sg12
F0.0
sg13
F0.0011841738645862357
sg14
F0.0
sg15
F0.0
sg16
F0.0
sg17
F1.0
sg18
F0.0
sg19
F0.3147274577735348
sg20
F0.0
sg21
F0.0016420361247947454
sg22
F0.17643571259504498
sg23
F0.0
sg24
F0.47160477156191016
sg25
F0.001331250246898427
sg26
F0.44998594402578007
sg27
F0.0
ssS'CARTER REBECCA C'
p254
(dp255
g3
F0.016896368937185262
sg4
F0.0
sg5
F0.0072554226061168434
sg6
F0.0
sg7
I00
sg8
F0.9544022833101148
sg9
F0.014576029932557683
sg10
F0.8820110655061066
sg11
F0.03515129552455155
sg12
F0.0
sg13
F0.00020897185845639447
sg14
F1.14587351848103
sg15
F0.6281972623163308
sg16
F0.0
sg17
F0.0
sg18
F0.04285714285714285
sg19
F0.0
sg20
F0.09508196721311475
sg21
F0.011494252873563218
sg22
F0.020817461735760136
sg23
F0.23559695408267026
sg24
F0.5632234615665495
sg25
F0.0046114132344779795
sg26
F0.0
sg27
F5.2124915622792834e-05
ssS'BUCHANAN HAROLD G'
p256
(dp257
g3
F0.06831433872250198
sg4
F0.0
sg5
F0.03205600489731352
sg6
F0.0026228017642713204
sg7
I00
sg8
F1.0
sg9
F0.05923795738124326
sg10
F0.9999999999999999
sg11
F0.003805037144410219
sg12
F0.0
sg13
F0.007871273335190861
sg14
F2.015990839337626
sg15
F0.47409677453000415
sg16
F0.0
sg17
F0.8136618350821336
sg18
F0.07142857142857142
sg19
F0.02065777619005207
sg20
F0.0
sg21
F0.0
sg22
F0.012806186065095239
sg23
F0.22318579483792242
sg24
F0.001445595921696274
sg25
F0.010183846157359545
sg26
F0.024032105848123743
sg27
F0.00011728106015128387
ssS'YEAP SOON'
p258
(dp259
g3
F0.12921488941897102
sg4
F0.0
sg5
F0.004661802502366235
sg6
F0.24084751467676155
sg7
I00
sg8
F1.0
sg9
F0.0
sg10
F0.9999999999999999
sg11
F0.1914346399307443
sg12
F0.0
sg13
F0.045748390142720044
sg14
F0.0
sg15
F0.0
sg16
F0.0
sg17
F1.0
sg18
F0.0
sg19
F0.0039250192190694545
sg20
F0.1918032786885246
sg21
F0.05956942163838715
sg22
F0.0
sg23
F0.0
sg24
F0.29469724683506493
sg25
F0.0005320308046579429
sg26
F0.005611850618649192
sg27
F0.0
ssS'MURRAY JULIA H'
p260
(dp261
g3
F0.1414656771799629
sg4
F0.0
sg5
F0.019359353922997327
sg6
F0.25170154264457106
sg7
I00
sg8
F1.0
sg9
F0.02429338322092947
sg10
F0.9999999999999999
sg11
F0.07120855227396268
sg12
F0.0
sg13
F0.00229869044302034
sg14
F1.744561330053558
sg15
F0.4924931728133919
sg16
F0.0
sg17
F0.6702998187329382
sg18
F0.05714285714285714
sg19
F0.012165751396281635
sg20
F0.036065573770491806
sg21
F0.003284072249589491
sg22
F0.013344200198161538
sg23
F0.20632832339564708
sg24
F0.10791989142539155
sg25
F0.007842754185497455
sg26
F0.011659296693550415
sg27
F3.1854115102817845e-05
ssS'GARLAND C KEVIN'
p262
(dp263
g3
F0.010071561091969255
sg4
F0.0
sg5
F0.03594447608883578
sg6
F0.21159453233258876
sg7
I00
sg8
F1.0
sg9
F0.07293923117078172
sg10
F0.9999999999999999
sg11
F0.03188983511505707
sg12
F0.0
sg13
F0.0022290331568682086
sg14
F3.6646460814155017
sg15
F0.5426216541789208
sg16
F0.0
sg17
F0.7099747476156415
sg18
F0.12142857142857141
sg19
F0.018247843141279474
sg20
F0.03278688524590164
sg21
F0.04433497536945813
sg22
F0.017606854606253185
sg23
F0.20872380671275256
sg24
F0.7570376828513877
sg25
F0.015126227608431004
sg26
F0.01852331684658003
sg27
F0.00587023077534171
ssS'DODSON KEITH'
p264
(dp265
g3
F0.007884972170686457
sg4
F0.0
sg5
F0.0016929319414272634
sg6
F0.12311431481489578
sg7
I00
sg8
F1.0
sg9
F0.0
sg10
F0.9999999999999999
sg11
F0.020293531436854504
sg12
F0.0
sg13
F0.0001393145723042631
sg14
F0.3167377818400655
sg15
F0.21879033946883958
sg16
F0.0
sg17
F0.0
sg18
F0.009999999999999998
sg19
F0.0
sg20
F0.03278688524590164
sg21
F0.0049261083743842365
sg22
F0.0
sg23
F0.19887640853879116
sg24
F0.4413914650965135
sg25
F0.0030894325947522895
sg26
F0.0
sg27
F7.47123790593364e-05
ssS'YEAGER F SCOTT'
p266
(dp267
g3
F0.15638370375979704
sg4
F0.0
sg5
F0.20094018668299105
sg6
F0.2358204779619082
sg7
I01
sg8
F1.0
sg9
F0.0
sg10
F0.9999999999999999
sg11
F0.32270338829498096
sg12
F0.0
sg13
F0.020086176014011067
sg14
F0.0
sg15
F0.0
sg16
F0.0
sg17
F0.6990930736662875
sg18
F0.0
sg19
F0.24200242565283647
sg20
F0.3206088992974239
sg21
F0.10954726718273515
sg22
F0.2422625750134097
sg23
F0.14254385570227615
sg24
F0.4925350552619833
sg25
F0.0034791494803393433
sg26
F0.24189062286016133
sg27
F0.014281261604429999
ssS'HIRKO JOSEPH'
p268
(dp269
g3
F0.15638370375979704
sg4
F0.003275689207052678
sg5
F0.744069320822792
sg6
F0.34086805995724834
sg7
I01
sg8
F1.0
sg9
F0.0
sg10
F0.9999999999999999
sg11
F0.32270338829498096
sg12
F0.0
sg13
F0.020086176014011067
sg14
F0.0
sg15
F0.0
sg16
F0.0
sg17
F1.0
sg18
F0.0
sg19
F0.6264714953211844
sg20
F0.3206088992974239
sg21
F0.10954726718273515
sg22
F0.0
sg23
F0.0
sg24
F0.4925350552619833
sg25
F0.0008796174399460223
sg26
F0.8957063016414396
sg27
F0.00027568288707165986
ssS'DIETRICH JANET R'
p270
(dp271
g3
F0.16664457990988601
sg4
F0.0
sg5
F0.05199765485393577
sg6
F0.01519039355140473
sg7
I00
sg8
F1.0
sg9
F0.10813781694605354
sg10
F0.9999999999999999
sg11
F0.3442652654466389
sg12
F0.0
sg13
F0.0035525215937587075
sg14
F2.3990403838464616
sg15
F0.4253919277627788
sg16
F0.0
sg17
F0.8310706149364614
sg18
F0.0857142857142857
sg19
F0.037977683521496344
sg20
F1.0
sg21
F0.022988505747126436
sg22
F0.021343620860857837
sg23
F0.22506024703534191
sg24
F0.4935606723309151
sg25
F0.013619803199104502
sg26
F0.04512640245316927
sg27
F4.565756498070558e-05
ssS'DERRICK JR. JAMES V'
p272
(dp273
g3
F0.14073681420620193
sg4
F0.0
sg5
F0.2329453310678357
sg6
F0.22348019566101163
sg7
I00
sg8
F0.6336020061716945
sg9
F0.09406397983143891
sg10
F0.3137312871233907
sg11
F0.25348795071570934
sg12
F0.0
sg13
F0.062482585678461974
sg14
F1.6247778624016247
sg15
F1.4519556935720106
sg16
F0.0
sg17
F1.0
sg18
F0.11428571428571428
sg19
F0.1798391157106287
sg20
F0.2098360655737705
sg21
F0.03284072249589491
sg22
F0.12108230938806887
sg23
F0.44307892496611945
sg24
F0.3379834259932958
sg25
F0.00532041426540897
sg26
F0.2571274677725741
sg27
F0.0007222196642402519
ssS'PAI LOU L'
p274
(dp275
g3
F0.12921488941897102
sg4
F0.0
sg5
F0.3957631572735708
sg6
F0.140088213566005
sg7
I00
sg8
F1.0
sg9
F0.0
sg10
F0.9999999999999999
sg11
F0.1914346399307443
sg12
F0.0
sg13
F0.045748390142720044
sg14
F3.8185574253758414
sg15
F0.3201656665224854
sg16
F0.0
sg17
F0.6450672665508715
sg18
F0.14285714285714285
sg19
F0.4849906774735727
sg20
F0.1918032786885246
sg21
F0.05956942163838715
sg22
F0.572682444169348
sg23
F0.23565994575517116
sg24
F0.29469724683506493
sg25
F0.03016018967901954
sg26
F0.4473039255645913
sg27
F0.17659313288986614
ssS'BAY FRANKLIN R'
p276
(dp277
g3
F0.12921488941897102
sg4
F0.08316304049350864
sg5
F0.009673896808155792
sg6
F0.5645231090692114
sg7
I00
sg8
F0.9424603910642264
sg9
F0.0
sg10
F0.9682156583438599
sg11
F0.1914346399307443
sg12
F0.0
sg13
F0.045748390142720044
sg14
F1.6689545251615756
sg15
F0.48326921961686414
sg16
F0.0
sg17
F0.0
sg18
F0.05714285714285714
sg19
F0.0012831174896525313
sg20
F0.1918032786885246
sg21
F0.05956942163838715
sg22
F0.009876644238798067
sg23
F0.21567538771374423
sg24
F0.29469724683506493
sg25
F0.007992445485092849
sg26
F0.0
sg27
F6.66040588513464e-06
ssS'MCCARTY DANNY J'
p278
(dp279
g3
F0.09117413199045851
sg4
F0.0
sg5
F0.01606773797979626
sg6
F0.0
sg7
I00
sg8
F1.0
sg9
F0.0
sg10
F0.9999999999999999
sg11
F0.0916832759557891
sg12
F0.0
sg13
F0.014140429088882698
sg14
F0.0
sg15
F0.0
sg16
F0.0
sg17
F0.8754089633971995
sg18
F0.0
sg19
F0.015453671240351114
sg20
F0.08196721311475409
sg21
F0.003284072249589491
sg22
F0.006405497905592678
sg23
F0.0
sg24
F0.18072762087803343
sg25
F0.0
sg26
F0.01934224911425236
sg27
F0.0
ssS'FUGH JOHN L'
p280
(dp281
g3
F0.12921488941897102
sg4
F0.016153659486694807
sg5
F0.004265656428072255
sg6
F0.0
sg7
I00
sg8
F1.0
sg9
F0.0
sg10
F0.9999999999999999
sg11
F0.1914346399307443
sg12
F0.0
sg13
F0.045748390142720044
sg14
F0.0
sg15
F0.0
sg16
F0.0
sg17
F1.0
sg18
F0.0
sg19
F0.003591482790966042
sg20
F0.1918032786885246
sg21
F0.05956942163838715
sg22
F0.0
sg23
F0.0
sg24
F0.29469724683506493
sg25
F0.0004885197095749312
sg26
F0.005134972288652648
sg27
F0.0
ssS'FALLON JAMES B'
p282
(dp283
g3
F0.11250993904055127
sg4
F0.0
sg5
F0.08320172802883904
sg6
F0.41931606072660355
sg7
I00
sg8
F1.0
sg9
F0.07275324102884227
sg10
F0.9999999999999999
sg11
F0.2902699764450081
sg12
F0.0
sg13
F0.004388409027584286
sg14
F8.207808580771403
sg15
F0.6800241544579664
sg16
F0.0
sg17
F0.40312870996771993
sg18
F0.3571428571428571
sg19
F0.04749328640854531
sg20
F0.1377049180327869
sg21
F0.06075533661740558
sg22
F0.09430774001953976
sg23
F0.27409296491003887
sg24
F0.726682829949457
sg25
F0.03549968470871702
sg26
F0.027374126247103794
sg27
F0.03875400601695276
ssS'KOENIG MARK E'
p284
(dp285
g3
F0.15352504638218922
sg4
F0.0
sg5
F0.033175105464823
sg6
F0.5552340194874171
sg7
I01
sg8
F1.0
sg9
F0.05830411973023073
sg10
F0.9999999999999999
sg11
F0.41112520384127554
sg12
F0.0
sg13
F0.0034132070214544447
sg14
F2.2584579249288588
sg15
F0.44096682606567505
sg16
F0.0
sg17
F0.3498529990026327
sg18
F0.09999999999999999
sg19
F0.039096964985476095
sg20
F0.1737704918032787
sg21
F0.02463054187192118
sg22
F0.08456468478482211
sg23
F0.27891452749946455
sg24
F0.6195424844200149
sg25
F0.0153285455099355
sg26
F0.01955658234169037
sg27
F0.014523352879211415
ssS'SAVAGE FRANK'
p286
(dp287
g3
F0.12921488941897102
sg4
F0.0
sg5
F0.0
sg6
F0.0
sg7
I00
sg8
F0.9653907988446478
sg9
F0.0
sg10
F0.9999999999999999
sg11
F0.1914346399307443
sg12
F0.0
sg13
F0.045748390142720044
sg14
F0.0
sg15
F0.0
sg16
F1.0
sg17
F0.0
sg18
F0.0
sg19
F0.0
sg20
F0.1918032786885246
sg21
F0.05956942163838715
sg22
F0.0
sg23
F0.0
sg24
F0.29469724683506493
sg25
F3.621096461635453e-05
sg26
F0.0
sg27
F0.0
ssS'IZZO LAWRENCE L'
p288
(dp289
g3
F0.029088258680095416
sg4
F0.0
sg5
F0.05236412624977073
sg6
F0.12280394993945701
sg7
I00
sg8
F1.0
sg9
F0.06073345805232368
sg10
F0.9999999999999999
sg11
F0.07881862656278311
sg12
F0.0
sg13
F0.00048760100306492065
sg14
F0.0
sg15
F0.0
sg16
F0.0
sg17
F0.3720239588452194
sg18
F0.0
sg19
F0.1185088730667461
sg20
F0.09180327868852459
sg21
F0.008210180623973728
sg22
F0.24758730264968232
sg23
F0.07673645544059075
sg24
F0.5890353219666425
sg25
F0.01911548818951386
sg26
F0.0630356292744369
sg27
F0.149977764862382
ssS'TILNEY ELIZABETH A'
p290
(dp291
g3
F0.026702888947786906
sg4
F0.0
sg5
F0.021554651325672122
sg6
F0.0
sg7
I00
sg8
F0.8359199015176981
sg9
F0.05344544308604483
sg10
F0.9999999999999999
sg11
F0.06830947635441204
sg12
F0.0
sg13
F0.00048760100306492065
sg14
F1.2129151201998885
sg15
F0.7511398547295521
sg16
F0.0
sg17
F0.5061889897794771
sg18
F0.04285714285714285
sg19
F0.023784160961829465
sg20
F0.03278688524590164
sg21
F0.0180623973727422
sg22
F0.039073564321276406
sg23
F0.22257477561466374
sg24
F0.7243634607254372
sg25
F0.0038566415442719162
sg26
F0.017213327998196363
sg27
F0.014677507490784749
ssS'MARTIN AMANDA K'
p292
(dp293
g3
F0.09707129605088788
sg4
F0.027277719949167587
sg5
F0.050069816513264455
sg6
F0.03589304214405302
sg7
I00
sg8
F1.0
sg9
F1.0
sg10
F0.9999999999999999
sg11
F0.08606631636165972
sg12
F0.0
sg13
F0.01518528838116467
sg14
F0.0
sg15
F0.0
sg16
F0.0
sg17
F1.0
sg18
F0.0
sg19
F0.04215643884743983
sg20
F0.02622950819672131
sg21
F0.0
sg22
F0.0
sg23
F0.3144967235331489
sg24
F0.1543583059654709
sg25
F0.08118030904136704
sg26
F0.06027375261671699
sg27
F0.2720586609939314
ssS'BUY RICHARD B'
p294
(dp295
g3
F0.22965809700503576
sg4
F0.2074115701212698
sg5
F0.08326354422944315
sg6
F0.0
sg7
I00
sg8
F0.80171647757981
sg9
F0.14962042074584964
sg10
F0.9999999999999999
sg11
F0.4223591230295343
sg12
F0.0
sg13
F0.07251323488436891
sg14
F2.722767784211577
sg15
F0.38205171961479
sg16
F0.0
sg17
F0.7382305550636237
sg18
F0.12857142857142856
sg19
F0.070137742399839
sg20
F0.5114754098360655
sg21
F0.11658456486042693
sg22
F0.061080862399667674
sg23
F0.29745207683544234
sg24
F0.37213695729306373
sg25
F0.02274726447164683
sg26
F0.07403006208385232
sg27
F0.038666262408987725
ssS'GRAMM WENDY L'
p296
(dp297
g3
F0.12921488941897102
sg4
F0.0
sg5
F0.0
sg6
F0.0
sg7
I00
sg8
F1.0
sg9
F0.0
sg10
F0.9999999999999999
sg11
F0.1914346399307443
sg12
F0.0
sg13
F0.045748390142720044
sg14
F0.0
sg15
F0.0
sg16
F0.9540764911943951
sg17
F0.0
sg18
F0.0
sg19
F0.0
sg20
F0.1918032786885246
sg21
F0.05956942163838715
sg22
F0.0
sg23
F0.0
sg24
F0.29469724683506493
sg25
F0.0011519142376037773
sg26
F0.0
sg27
F0.0
ssS'CAUSEY RICHARD A'
p298
(dp299
g3
F0.12158759607739197
sg4
F0.0
sg5
F0.024184742020389477
sg6
F0.13408636886209746
sg7
I01
sg8
F0.9329411771420157
sg9
F0.06802147301860252
sg10
F0.9999999999999999
sg11
F0.2868273237905417
sg12
F0.0
sg13
F0.002577319587628866
sg14
F2.4085416521150607
sg15
F0.5351147660638778
sg16
F0.0
sg17
F0.0
sg18
F0.14285714285714285
sg19
F0.05094805591634369
sg20
F0.1901639344262295
sg21
F0.019704433497536946
sg22
F0.1694970103024761
sg23
F0.3736207073424893
sg24
F0.5568215763878537
sg25
F0.01804520795054119
sg26
F0.0
sg27
F0.029720372029036667
ssS'TAYLOR MITCHELL S'
p300
(dp301
g3
F0.03153988868274582
sg4
F0.07262425523490833
sg5
F0.09144855576459772
sg6
F0.0
sg7
I00
sg8
F1.0
sg9
F0.0
sg10
F0.9999999999999999
sg11
F0.05399528900163073
sg12
F0.0
sg13
F0.0011841738645862357
sg14
F2.2623240100447184
sg15
F0.5491171568910085
sg16
F0.0
sg17
F0.849455067064561
sg18
F0.0857142857142857
sg19
F0.07625823766763311
sg20
F0.0
sg21
F0.0
sg22
F0.038193313043882356
sg23
F0.23866104900932097
sg24
F0.2848699782611543
sg25
F0.01055103499482661
sg26
F0.09261716650192335
sg27
F0.0
ssS'DONAHUE JR JEFFREY M'
p302
(dp303
g3
F0.05353829843625762
sg4
F0.0
sg5
F0.03787137122456829
sg6
F0.4208198004047858
sg7
I00
sg8
F0.9143929920961903
sg9
F0.0
sg10
F0.9999999999999999
sg11
F0.1395180286283747
sg12
F0.0
sg13
F0.0006965728615213152
sg14
F2.8714900520816506
sg15
F0.9134922809902256
sg16
F0.0
sg17
F0.7085370050361336
sg18
F0.11428571428571428
sg19
F0.022011530912249826
sg20
F0.6163934426229508
sg21
F0.0180623973727422
sg22
F0.021343620860857837
sg23
F0.25070775643459936
sg24
F0.7189353205766851
sg25
F0.008456563832644972
sg26
F0.022298574512268174
sg27
F8.600611077760817e-05
ssS'GLISAN JR BEN F'
p304
(dp305
g3
F0.05406838059899284
sg4
F0.0
sg5
F0.02381539264025409
sg6
F0.550692201098954
sg7
I01
sg8
F1.0
sg9
F0.01380311165200059
sg10
F0.9999999999999999
sg11
F0.15799963761551006
sg12
F0.0
sg13
F0.00027862914460852607
sg14
F2.1820165469588146
sg15
F0.4715928204709012
sg16
F0.0
sg17
F0.49416219465516487
sg18
F0.0857142857142857
sg19
F0.015853080094883988
sg20
F0.17049180327868851
sg21
F0.009852216748768473
sg22
F0.026678374446726775
sg23
F0.24744478779905296
sg24
F0.7103861751652005
sg25
F0.01228550157492107
sg26
F0.011200759837784508
sg27
F0.01933525481216738
ss.