(lp0
S'poi'
p1
aS'aggregate_communications_with_poi'
p2
aS'compound_key_financial_data'
p3
aS'bonus_to_total_payments_ratio'
p4
aS'exercised_stock_to_total_stock'
p5
aS'to_messages'
p6
aS'from_messages'
p7
aS'from_poi_to_this_person'
p8
aS'from_this_person_to_poi'
p9
aS'shared_receipt_with_poi'
p10
aS'exercised_stock_options'
p11
aS'restricted_stock'
p12
aS'restricted_stock_deferred'
p13
aS'total_stock_value'
p14
aS'salary'
p15
aS'bonus'
p16
aS'long_term_incentive'
p17
aS'deferred_income'
p18
aS'deferral_payments'
p19
aS'loan_advances'
p20
aS'other'
p21
aS'expenses'
p22
aS'director_fees'
p23
aS'total_payments'
p24
a.